Archive member included because of file (symbol)

c:/altera/12.1sp1/nios2eds/bin/gnu/h-i686-mingw32/bin/../lib/gcc/nios2-elf/4.1.2\libgcc.a(lib2-divmod.o)
                              obj/default/hello_ucosii.o (__modsi3)
c:/altera/12.1sp1/nios2eds/bin/gnu/h-i686-mingw32/bin/../lib/gcc/nios2-elf/4.1.2/../../../../nios2-elf/lib\libc.a(lib_a-printf.o)
                              obj/default/hello_ucosii.o (printf)
c:/altera/12.1sp1/nios2eds/bin/gnu/h-i686-mingw32/bin/../lib/gcc/nios2-elf/4.1.2/../../../../nios2-elf/lib\libc.a(lib_a-putchar.o)
                              obj/default/hello_ucosii.o (putchar)
c:/altera/12.1sp1/nios2eds/bin/gnu/h-i686-mingw32/bin/../lib/gcc/nios2-elf/4.1.2/../../../../nios2-elf/lib\libc.a(lib_a-vfprintf.o)
                              c:/altera/12.1sp1/nios2eds/bin/gnu/h-i686-mingw32/bin/../lib/gcc/nios2-elf/4.1.2/../../../../nios2-elf/lib\libc.a(lib_a-printf.o) (___vfprintf_internal_r)
c:/altera/12.1sp1/nios2eds/bin/gnu/h-i686-mingw32/bin/../lib/gcc/nios2-elf/4.1.2/../../../../nios2-elf/lib\libc.a(lib_a-wsetup.o)
                              c:/altera/12.1sp1/nios2eds/bin/gnu/h-i686-mingw32/bin/../lib/gcc/nios2-elf/4.1.2/../../../../nios2-elf/lib\libc.a(lib_a-vfprintf.o) (__swsetup_r)
c:/altera/12.1sp1/nios2eds/bin/gnu/h-i686-mingw32/bin/../lib/gcc/nios2-elf/4.1.2/../../../../nios2-elf/lib\libc.a(lib_a-dtoa.o)
                              c:/altera/12.1sp1/nios2eds/bin/gnu/h-i686-mingw32/bin/../lib/gcc/nios2-elf/4.1.2/../../../../nios2-elf/lib\libc.a(lib_a-vfprintf.o) (_dtoa_r)
c:/altera/12.1sp1/nios2eds/bin/gnu/h-i686-mingw32/bin/../lib/gcc/nios2-elf/4.1.2/../../../../nios2-elf/lib\libc.a(lib_a-fflush.o)
                              c:/altera/12.1sp1/nios2eds/bin/gnu/h-i686-mingw32/bin/../lib/gcc/nios2-elf/4.1.2/../../../../nios2-elf/lib\libc.a(lib_a-vfprintf.o) (_fflush_r)
c:/altera/12.1sp1/nios2eds/bin/gnu/h-i686-mingw32/bin/../lib/gcc/nios2-elf/4.1.2/../../../../nios2-elf/lib\libc.a(lib_a-findfp.o)
                              c:/altera/12.1sp1/nios2eds/bin/gnu/h-i686-mingw32/bin/../lib/gcc/nios2-elf/4.1.2/../../../../nios2-elf/lib\libc.a(lib_a-vfprintf.o) (__sinit)
c:/altera/12.1sp1/nios2eds/bin/gnu/h-i686-mingw32/bin/../lib/gcc/nios2-elf/4.1.2/../../../../nios2-elf/lib\libc.a(lib_a-freer.o)
                              c:/altera/12.1sp1/nios2eds/bin/gnu/h-i686-mingw32/bin/../lib/gcc/nios2-elf/4.1.2/../../../../nios2-elf/lib\libc.a(lib_a-wsetup.o) (_free_r)
c:/altera/12.1sp1/nios2eds/bin/gnu/h-i686-mingw32/bin/../lib/gcc/nios2-elf/4.1.2/../../../../nios2-elf/lib\libc.a(lib_a-fvwrite.o)
                              c:/altera/12.1sp1/nios2eds/bin/gnu/h-i686-mingw32/bin/../lib/gcc/nios2-elf/4.1.2/../../../../nios2-elf/lib\libc.a(lib_a-vfprintf.o) (__sfvwrite_r)
c:/altera/12.1sp1/nios2eds/bin/gnu/h-i686-mingw32/bin/../lib/gcc/nios2-elf/4.1.2/../../../../nios2-elf/lib\libc.a(lib_a-fwalk.o)
                              c:/altera/12.1sp1/nios2eds/bin/gnu/h-i686-mingw32/bin/../lib/gcc/nios2-elf/4.1.2/../../../../nios2-elf/lib\libc.a(lib_a-fflush.o) (_fwalk_reent)
c:/altera/12.1sp1/nios2eds/bin/gnu/h-i686-mingw32/bin/../lib/gcc/nios2-elf/4.1.2/../../../../nios2-elf/lib\libc.a(lib_a-impure.o)
                              c:/altera/12.1sp1/nios2eds/bin/gnu/h-i686-mingw32/bin/../lib/gcc/nios2-elf/4.1.2/../../../../nios2-elf/lib\libc.a(lib_a-printf.o) (_impure_ptr)
c:/altera/12.1sp1/nios2eds/bin/gnu/h-i686-mingw32/bin/../lib/gcc/nios2-elf/4.1.2/../../../../nios2-elf/lib\libc.a(lib_a-locale.o)
                              c:/altera/12.1sp1/nios2eds/bin/gnu/h-i686-mingw32/bin/../lib/gcc/nios2-elf/4.1.2/../../../../nios2-elf/lib\libc.a(lib_a-vfprintf.o) (_localeconv_r)
c:/altera/12.1sp1/nios2eds/bin/gnu/h-i686-mingw32/bin/../lib/gcc/nios2-elf/4.1.2/../../../../nios2-elf/lib\libc.a(lib_a-makebuf.o)
                              c:/altera/12.1sp1/nios2eds/bin/gnu/h-i686-mingw32/bin/../lib/gcc/nios2-elf/4.1.2/../../../../nios2-elf/lib\libc.a(lib_a-wsetup.o) (__smakebuf_r)
c:/altera/12.1sp1/nios2eds/bin/gnu/h-i686-mingw32/bin/../lib/gcc/nios2-elf/4.1.2/../../../../nios2-elf/lib\libc.a(lib_a-mallocr.o)
                              c:/altera/12.1sp1/nios2eds/bin/gnu/h-i686-mingw32/bin/../lib/gcc/nios2-elf/4.1.2/../../../../nios2-elf/lib\libc.a(lib_a-findfp.o) (_malloc_r)
c:/altera/12.1sp1/nios2eds/bin/gnu/h-i686-mingw32/bin/../lib/gcc/nios2-elf/4.1.2/../../../../nios2-elf/lib\libc.a(lib_a-memchr.o)
                              c:/altera/12.1sp1/nios2eds/bin/gnu/h-i686-mingw32/bin/../lib/gcc/nios2-elf/4.1.2/../../../../nios2-elf/lib\libc.a(lib_a-vfprintf.o) (memchr)
c:/altera/12.1sp1/nios2eds/bin/gnu/h-i686-mingw32/bin/../lib/gcc/nios2-elf/4.1.2/../../../../nios2-elf/lib\libc.a(lib_a-memcpy.o)
                              c:/altera/12.1sp1/nios2eds/bin/gnu/h-i686-mingw32/bin/../lib/gcc/nios2-elf/4.1.2/../../../../nios2-elf/lib\libc.a(lib_a-dtoa.o) (memcpy)
c:/altera/12.1sp1/nios2eds/bin/gnu/h-i686-mingw32/bin/../lib/gcc/nios2-elf/4.1.2/../../../../nios2-elf/lib\libc.a(lib_a-memmove.o)
                              c:/altera/12.1sp1/nios2eds/bin/gnu/h-i686-mingw32/bin/../lib/gcc/nios2-elf/4.1.2/../../../../nios2-elf/lib\libc.a(lib_a-fvwrite.o) (memmove)
c:/altera/12.1sp1/nios2eds/bin/gnu/h-i686-mingw32/bin/../lib/gcc/nios2-elf/4.1.2/../../../../nios2-elf/lib\libc.a(lib_a-memset.o)
                              c:/altera/12.1sp1/nios2eds/bin/gnu/h-i686-mingw32/bin/../lib/gcc/nios2-elf/4.1.2/../../../../nios2-elf/lib\libc.a(lib_a-findfp.o) (memset)
c:/altera/12.1sp1/nios2eds/bin/gnu/h-i686-mingw32/bin/../lib/gcc/nios2-elf/4.1.2/../../../../nios2-elf/lib\libc.a(lib_a-mprec.o)
                              c:/altera/12.1sp1/nios2eds/bin/gnu/h-i686-mingw32/bin/../lib/gcc/nios2-elf/4.1.2/../../../../nios2-elf/lib\libc.a(lib_a-dtoa.o) (_Bfree)
c:/altera/12.1sp1/nios2eds/bin/gnu/h-i686-mingw32/bin/../lib/gcc/nios2-elf/4.1.2/../../../../nios2-elf/lib\libc.a(lib_a-putc.o)
                              c:/altera/12.1sp1/nios2eds/bin/gnu/h-i686-mingw32/bin/../lib/gcc/nios2-elf/4.1.2/../../../../nios2-elf/lib\libc.a(lib_a-putchar.o) (_putc_r)
c:/altera/12.1sp1/nios2eds/bin/gnu/h-i686-mingw32/bin/../lib/gcc/nios2-elf/4.1.2/../../../../nios2-elf/lib\libc.a(lib_a-reallocr.o)
                              c:/altera/12.1sp1/nios2eds/bin/gnu/h-i686-mingw32/bin/../lib/gcc/nios2-elf/4.1.2/../../../../nios2-elf/lib\libc.a(lib_a-fvwrite.o) (_realloc_r)
c:/altera/12.1sp1/nios2eds/bin/gnu/h-i686-mingw32/bin/../lib/gcc/nios2-elf/4.1.2/../../../../nios2-elf/lib\libc.a(lib_a-s_isinfd.o)
                              c:/altera/12.1sp1/nios2eds/bin/gnu/h-i686-mingw32/bin/../lib/gcc/nios2-elf/4.1.2/../../../../nios2-elf/lib\libc.a(lib_a-vfprintf.o) (__isinfd)
c:/altera/12.1sp1/nios2eds/bin/gnu/h-i686-mingw32/bin/../lib/gcc/nios2-elf/4.1.2/../../../../nios2-elf/lib\libc.a(lib_a-s_isnand.o)
                              c:/altera/12.1sp1/nios2eds/bin/gnu/h-i686-mingw32/bin/../lib/gcc/nios2-elf/4.1.2/../../../../nios2-elf/lib\libc.a(lib_a-vfprintf.o) (__isnand)
c:/altera/12.1sp1/nios2eds/bin/gnu/h-i686-mingw32/bin/../lib/gcc/nios2-elf/4.1.2/../../../../nios2-elf/lib\libc.a(lib_a-sbrkr.o)
                              c:/altera/12.1sp1/nios2eds/bin/gnu/h-i686-mingw32/bin/../lib/gcc/nios2-elf/4.1.2/../../../../nios2-elf/lib\libc.a(lib_a-freer.o) (_sbrk_r)
c:/altera/12.1sp1/nios2eds/bin/gnu/h-i686-mingw32/bin/../lib/gcc/nios2-elf/4.1.2/../../../../nios2-elf/lib\libc.a(lib_a-stdio.o)
                              c:/altera/12.1sp1/nios2eds/bin/gnu/h-i686-mingw32/bin/../lib/gcc/nios2-elf/4.1.2/../../../../nios2-elf/lib\libc.a(lib_a-findfp.o) (__sclose)
c:/altera/12.1sp1/nios2eds/bin/gnu/h-i686-mingw32/bin/../lib/gcc/nios2-elf/4.1.2/../../../../nios2-elf/lib\libc.a(lib_a-strcmp.o)
                              c:/altera/12.1sp1/nios2eds/bin/gnu/h-i686-mingw32/bin/../lib/gcc/nios2-elf/4.1.2/../../../../nios2-elf/lib\libc.a(lib_a-locale.o) (strcmp)
c:/altera/12.1sp1/nios2eds/bin/gnu/h-i686-mingw32/bin/../lib/gcc/nios2-elf/4.1.2/../../../../nios2-elf/lib\libc.a(lib_a-strlen.o)
                              c:/altera/12.1sp1/nios2eds/bin/gnu/h-i686-mingw32/bin/../lib/gcc/nios2-elf/4.1.2/../../../../nios2-elf/lib\libc.a(lib_a-vfprintf.o) (strlen)
c:/altera/12.1sp1/nios2eds/bin/gnu/h-i686-mingw32/bin/../lib/gcc/nios2-elf/4.1.2/../../../../nios2-elf/lib\libc.a(lib_a-wbuf.o)
                              c:/altera/12.1sp1/nios2eds/bin/gnu/h-i686-mingw32/bin/../lib/gcc/nios2-elf/4.1.2/../../../../nios2-elf/lib\libc.a(lib_a-putc.o) (__swbuf_r)
c:/altera/12.1sp1/nios2eds/bin/gnu/h-i686-mingw32/bin/../lib/gcc/nios2-elf/4.1.2/../../../../nios2-elf/lib\libc.a(lib_a-writer.o)
                              c:/altera/12.1sp1/nios2eds/bin/gnu/h-i686-mingw32/bin/../lib/gcc/nios2-elf/4.1.2/../../../../nios2-elf/lib\libc.a(lib_a-stdio.o) (_write_r)
c:/altera/12.1sp1/nios2eds/bin/gnu/h-i686-mingw32/bin/../lib/gcc/nios2-elf/4.1.2/../../../../nios2-elf/lib\libc.a(lib_a-callocr.o)
                              c:/altera/12.1sp1/nios2eds/bin/gnu/h-i686-mingw32/bin/../lib/gcc/nios2-elf/4.1.2/../../../../nios2-elf/lib\libc.a(lib_a-mprec.o) (_calloc_r)
c:/altera/12.1sp1/nios2eds/bin/gnu/h-i686-mingw32/bin/../lib/gcc/nios2-elf/4.1.2/../../../../nios2-elf/lib\libc.a(lib_a-closer.o)
                              c:/altera/12.1sp1/nios2eds/bin/gnu/h-i686-mingw32/bin/../lib/gcc/nios2-elf/4.1.2/../../../../nios2-elf/lib\libc.a(lib_a-stdio.o) (_close_r)
c:/altera/12.1sp1/nios2eds/bin/gnu/h-i686-mingw32/bin/../lib/gcc/nios2-elf/4.1.2/../../../../nios2-elf/lib\libc.a(lib_a-fclose.o)
                              c:/altera/12.1sp1/nios2eds/bin/gnu/h-i686-mingw32/bin/../lib/gcc/nios2-elf/4.1.2/../../../../nios2-elf/lib\libc.a(lib_a-findfp.o) (fclose)
c:/altera/12.1sp1/nios2eds/bin/gnu/h-i686-mingw32/bin/../lib/gcc/nios2-elf/4.1.2/../../../../nios2-elf/lib\libc.a(lib_a-fstatr.o)
                              c:/altera/12.1sp1/nios2eds/bin/gnu/h-i686-mingw32/bin/../lib/gcc/nios2-elf/4.1.2/../../../../nios2-elf/lib\libc.a(lib_a-makebuf.o) (_fstat_r)
c:/altera/12.1sp1/nios2eds/bin/gnu/h-i686-mingw32/bin/../lib/gcc/nios2-elf/4.1.2/../../../../nios2-elf/lib\libc.a(lib_a-int_errno.o)
                              c:/altera/12.1sp1/nios2eds/bin/gnu/h-i686-mingw32/bin/../lib/gcc/nios2-elf/4.1.2/../../../../nios2-elf/lib\libc.a(lib_a-sbrkr.o) (errno)
c:/altera/12.1sp1/nios2eds/bin/gnu/h-i686-mingw32/bin/../lib/gcc/nios2-elf/4.1.2/../../../../nios2-elf/lib\libc.a(lib_a-isattyr.o)
                              c:/altera/12.1sp1/nios2eds/bin/gnu/h-i686-mingw32/bin/../lib/gcc/nios2-elf/4.1.2/../../../../nios2-elf/lib\libc.a(lib_a-makebuf.o) (_isatty_r)
c:/altera/12.1sp1/nios2eds/bin/gnu/h-i686-mingw32/bin/../lib/gcc/nios2-elf/4.1.2/../../../../nios2-elf/lib\libc.a(lib_a-lseekr.o)
                              c:/altera/12.1sp1/nios2eds/bin/gnu/h-i686-mingw32/bin/../lib/gcc/nios2-elf/4.1.2/../../../../nios2-elf/lib\libc.a(lib_a-stdio.o) (_lseek_r)
c:/altera/12.1sp1/nios2eds/bin/gnu/h-i686-mingw32/bin/../lib/gcc/nios2-elf/4.1.2/../../../../nios2-elf/lib\libc.a(lib_a-readr.o)
                              c:/altera/12.1sp1/nios2eds/bin/gnu/h-i686-mingw32/bin/../lib/gcc/nios2-elf/4.1.2/../../../../nios2-elf/lib\libc.a(lib_a-stdio.o) (_read_r)
c:/altera/12.1sp1/nios2eds/bin/gnu/h-i686-mingw32/bin/../lib/gcc/nios2-elf/4.1.2\libgcc.a(_udivdi3.o)
                              c:/altera/12.1sp1/nios2eds/bin/gnu/h-i686-mingw32/bin/../lib/gcc/nios2-elf/4.1.2/../../../../nios2-elf/lib\libc.a(lib_a-vfprintf.o) (__udivdi3)
c:/altera/12.1sp1/nios2eds/bin/gnu/h-i686-mingw32/bin/../lib/gcc/nios2-elf/4.1.2\libgcc.a(_umoddi3.o)
                              c:/altera/12.1sp1/nios2eds/bin/gnu/h-i686-mingw32/bin/../lib/gcc/nios2-elf/4.1.2/../../../../nios2-elf/lib\libc.a(lib_a-vfprintf.o) (__umoddi3)
c:/altera/12.1sp1/nios2eds/bin/gnu/h-i686-mingw32/bin/../lib/gcc/nios2-elf/4.1.2\libgcc.a(_addsub_df.o)
                              c:/altera/12.1sp1/nios2eds/bin/gnu/h-i686-mingw32/bin/../lib/gcc/nios2-elf/4.1.2/../../../../nios2-elf/lib\libc.a(lib_a-dtoa.o) (__subdf3)
c:/altera/12.1sp1/nios2eds/bin/gnu/h-i686-mingw32/bin/../lib/gcc/nios2-elf/4.1.2\libgcc.a(_mul_df.o)
                              c:/altera/12.1sp1/nios2eds/bin/gnu/h-i686-mingw32/bin/../lib/gcc/nios2-elf/4.1.2/../../../../nios2-elf/lib\libc.a(lib_a-dtoa.o) (__muldf3)
c:/altera/12.1sp1/nios2eds/bin/gnu/h-i686-mingw32/bin/../lib/gcc/nios2-elf/4.1.2\libgcc.a(_div_df.o)
                              c:/altera/12.1sp1/nios2eds/bin/gnu/h-i686-mingw32/bin/../lib/gcc/nios2-elf/4.1.2/../../../../nios2-elf/lib\libc.a(lib_a-dtoa.o) (__divdf3)
c:/altera/12.1sp1/nios2eds/bin/gnu/h-i686-mingw32/bin/../lib/gcc/nios2-elf/4.1.2\libgcc.a(_eq_df.o)
                              c:/altera/12.1sp1/nios2eds/bin/gnu/h-i686-mingw32/bin/../lib/gcc/nios2-elf/4.1.2/../../../../nios2-elf/lib\libc.a(lib_a-vfprintf.o) (__eqdf2)
c:/altera/12.1sp1/nios2eds/bin/gnu/h-i686-mingw32/bin/../lib/gcc/nios2-elf/4.1.2\libgcc.a(_ne_df.o)
                              c:/altera/12.1sp1/nios2eds/bin/gnu/h-i686-mingw32/bin/../lib/gcc/nios2-elf/4.1.2/../../../../nios2-elf/lib\libc.a(lib_a-vfprintf.o) (__nedf2)
c:/altera/12.1sp1/nios2eds/bin/gnu/h-i686-mingw32/bin/../lib/gcc/nios2-elf/4.1.2\libgcc.a(_gt_df.o)
                              c:/altera/12.1sp1/nios2eds/bin/gnu/h-i686-mingw32/bin/../lib/gcc/nios2-elf/4.1.2/../../../../nios2-elf/lib\libc.a(lib_a-dtoa.o) (__gtdf2)
c:/altera/12.1sp1/nios2eds/bin/gnu/h-i686-mingw32/bin/../lib/gcc/nios2-elf/4.1.2\libgcc.a(_ge_df.o)
                              c:/altera/12.1sp1/nios2eds/bin/gnu/h-i686-mingw32/bin/../lib/gcc/nios2-elf/4.1.2/../../../../nios2-elf/lib\libc.a(lib_a-dtoa.o) (__gedf2)
c:/altera/12.1sp1/nios2eds/bin/gnu/h-i686-mingw32/bin/../lib/gcc/nios2-elf/4.1.2\libgcc.a(_lt_df.o)
                              c:/altera/12.1sp1/nios2eds/bin/gnu/h-i686-mingw32/bin/../lib/gcc/nios2-elf/4.1.2/../../../../nios2-elf/lib\libc.a(lib_a-vfprintf.o) (__ltdf2)
c:/altera/12.1sp1/nios2eds/bin/gnu/h-i686-mingw32/bin/../lib/gcc/nios2-elf/4.1.2\libgcc.a(_si_to_df.o)
                              c:/altera/12.1sp1/nios2eds/bin/gnu/h-i686-mingw32/bin/../lib/gcc/nios2-elf/4.1.2/../../../../nios2-elf/lib\libc.a(lib_a-dtoa.o) (__floatsidf)
c:/altera/12.1sp1/nios2eds/bin/gnu/h-i686-mingw32/bin/../lib/gcc/nios2-elf/4.1.2\libgcc.a(_df_to_si.o)
                              c:/altera/12.1sp1/nios2eds/bin/gnu/h-i686-mingw32/bin/../lib/gcc/nios2-elf/4.1.2/../../../../nios2-elf/lib\libc.a(lib_a-dtoa.o) (__fixdfsi)
c:/altera/12.1sp1/nios2eds/bin/gnu/h-i686-mingw32/bin/../lib/gcc/nios2-elf/4.1.2\libgcc.a(_thenan_df.o)
                              c:/altera/12.1sp1/nios2eds/bin/gnu/h-i686-mingw32/bin/../lib/gcc/nios2-elf/4.1.2\libgcc.a(_addsub_df.o) (__thenan_df)
c:/altera/12.1sp1/nios2eds/bin/gnu/h-i686-mingw32/bin/../lib/gcc/nios2-elf/4.1.2\libgcc.a(_usi_to_df.o)
                              c:/altera/12.1sp1/nios2eds/bin/gnu/h-i686-mingw32/bin/../lib/gcc/nios2-elf/4.1.2/../../../../nios2-elf/lib\libc.a(lib_a-dtoa.o) (__floatunsidf)
c:/altera/12.1sp1/nios2eds/bin/gnu/h-i686-mingw32/bin/../lib/gcc/nios2-elf/4.1.2\libgcc.a(_muldi3.o)
                              c:/altera/12.1sp1/nios2eds/bin/gnu/h-i686-mingw32/bin/../lib/gcc/nios2-elf/4.1.2\libgcc.a(_mul_df.o) (__muldi3)
c:/altera/12.1sp1/nios2eds/bin/gnu/h-i686-mingw32/bin/../lib/gcc/nios2-elf/4.1.2\libgcc.a(_clz.o)
                              c:/altera/12.1sp1/nios2eds/bin/gnu/h-i686-mingw32/bin/../lib/gcc/nios2-elf/4.1.2\libgcc.a(_udivdi3.o) (__clz_tab)
c:/altera/12.1sp1/nios2eds/bin/gnu/h-i686-mingw32/bin/../lib/gcc/nios2-elf/4.1.2\libgcc.a(_clzsi2.o)
                              c:/altera/12.1sp1/nios2eds/bin/gnu/h-i686-mingw32/bin/../lib/gcc/nios2-elf/4.1.2\libgcc.a(_si_to_df.o) (__clzsi2)
c:/altera/12.1sp1/nios2eds/bin/gnu/h-i686-mingw32/bin/../lib/gcc/nios2-elf/4.1.2\libgcc.a(_pack_df.o)
                              c:/altera/12.1sp1/nios2eds/bin/gnu/h-i686-mingw32/bin/../lib/gcc/nios2-elf/4.1.2\libgcc.a(_addsub_df.o) (__pack_d)
c:/altera/12.1sp1/nios2eds/bin/gnu/h-i686-mingw32/bin/../lib/gcc/nios2-elf/4.1.2\libgcc.a(_unpack_df.o)
                              c:/altera/12.1sp1/nios2eds/bin/gnu/h-i686-mingw32/bin/../lib/gcc/nios2-elf/4.1.2\libgcc.a(_addsub_df.o) (__unpack_d)
c:/altera/12.1sp1/nios2eds/bin/gnu/h-i686-mingw32/bin/../lib/gcc/nios2-elf/4.1.2\libgcc.a(_fpcmp_parts_df.o)
                              c:/altera/12.1sp1/nios2eds/bin/gnu/h-i686-mingw32/bin/../lib/gcc/nios2-elf/4.1.2\libgcc.a(_eq_df.o) (__fpcmp_parts_d)
../SynthUnitTest_bsp/\libucosii_bsp.a(alt_close.o)
                              c:/altera/12.1sp1/nios2eds/bin/gnu/h-i686-mingw32/bin/../lib/gcc/nios2-elf/4.1.2/../../../../nios2-elf/lib\libc.a(lib_a-closer.o) (close)
../SynthUnitTest_bsp/\libucosii_bsp.a(alt_dev.o)
                              ../SynthUnitTest_bsp/\libucosii_bsp.a(alt_close.o) (alt_fd_list)
../SynthUnitTest_bsp/\libucosii_bsp.a(alt_errno.o)
                              ../SynthUnitTest_bsp/\libucosii_bsp.a(alt_close.o) (alt_errno)
../SynthUnitTest_bsp/\libucosii_bsp.a(alt_fstat.o)
                              c:/altera/12.1sp1/nios2eds/bin/gnu/h-i686-mingw32/bin/../lib/gcc/nios2-elf/4.1.2/../../../../nios2-elf/lib\libc.a(lib_a-fstatr.o) (fstat)
../SynthUnitTest_bsp/\libucosii_bsp.a(alt_isatty.o)
                              c:/altera/12.1sp1/nios2eds/bin/gnu/h-i686-mingw32/bin/../lib/gcc/nios2-elf/4.1.2/../../../../nios2-elf/lib\libc.a(lib_a-isattyr.o) (isatty)
../SynthUnitTest_bsp/\libucosii_bsp.a(alt_load.o)
                              ../SynthUnitTest_bsp//obj/HAL/src/crt0.o (alt_load)
../SynthUnitTest_bsp/\libucosii_bsp.a(alt_lseek.o)
                              c:/altera/12.1sp1/nios2eds/bin/gnu/h-i686-mingw32/bin/../lib/gcc/nios2-elf/4.1.2/../../../../nios2-elf/lib\libc.a(lib_a-lseekr.o) (lseek)
../SynthUnitTest_bsp/\libucosii_bsp.a(alt_main.o)
                              ../SynthUnitTest_bsp//obj/HAL/src/crt0.o (alt_main)
../SynthUnitTest_bsp/\libucosii_bsp.a(alt_read.o)
                              c:/altera/12.1sp1/nios2eds/bin/gnu/h-i686-mingw32/bin/../lib/gcc/nios2-elf/4.1.2/../../../../nios2-elf/lib\libc.a(lib_a-readr.o) (read)
../SynthUnitTest_bsp/\libucosii_bsp.a(alt_release_fd.o)
                              ../SynthUnitTest_bsp/\libucosii_bsp.a(alt_close.o) (alt_release_fd)
../SynthUnitTest_bsp/\libucosii_bsp.a(alt_sbrk.o)
                              c:/altera/12.1sp1/nios2eds/bin/gnu/h-i686-mingw32/bin/../lib/gcc/nios2-elf/4.1.2/../../../../nios2-elf/lib\libc.a(lib_a-sbrkr.o) (sbrk)
../SynthUnitTest_bsp/\libucosii_bsp.a(alt_write.o)
                              c:/altera/12.1sp1/nios2eds/bin/gnu/h-i686-mingw32/bin/../lib/gcc/nios2-elf/4.1.2/../../../../nios2-elf/lib\libc.a(lib_a-writer.o) (write)
../SynthUnitTest_bsp/\libucosii_bsp.a(alt_env_lock.o)
                              ../SynthUnitTest_bsp/\libucosii_bsp.a(alt_main.o) (alt_envsem)
../SynthUnitTest_bsp/\libucosii_bsp.a(alt_malloc_lock.o)
                              c:/altera/12.1sp1/nios2eds/bin/gnu/h-i686-mingw32/bin/../lib/gcc/nios2-elf/4.1.2/../../../../nios2-elf/lib\libc.a(lib_a-freer.o) (__malloc_lock)
../SynthUnitTest_bsp/\libucosii_bsp.a(os_core.o)
                              ../SynthUnitTest_bsp/\libucosii_bsp.a(alt_main.o) (OSInit)
../SynthUnitTest_bsp/\libucosii_bsp.a(os_dbg.o)
                              ../SynthUnitTest_bsp/\libucosii_bsp.a(os_core.o) (OSDebugInit)
../SynthUnitTest_bsp/\libucosii_bsp.a(os_flag.o)
                              ../SynthUnitTest_bsp/\libucosii_bsp.a(os_core.o) (OS_FlagInit)
../SynthUnitTest_bsp/\libucosii_bsp.a(os_mem.o)
                              ../SynthUnitTest_bsp/\libucosii_bsp.a(os_core.o) (OS_MemInit)
../SynthUnitTest_bsp/\libucosii_bsp.a(os_q.o)
                              ../SynthUnitTest_bsp/\libucosii_bsp.a(os_core.o) (OS_QInit)
../SynthUnitTest_bsp/\libucosii_bsp.a(os_sem.o)
                              ../SynthUnitTest_bsp/\libucosii_bsp.a(alt_main.o) (OSSemCreate)
../SynthUnitTest_bsp/\libucosii_bsp.a(os_task.o)
                              obj/default/hello_ucosii.o (OSTaskCreateExt)
../SynthUnitTest_bsp/\libucosii_bsp.a(os_time.o)
                              ../SynthUnitTest_bsp/\libucosii_bsp.a(os_core.o) (OSTimeDly)
../SynthUnitTest_bsp/\libucosii_bsp.a(alt_sys_init.o)
                              ../SynthUnitTest_bsp/\libucosii_bsp.a(alt_main.o) (alt_irq_init)
../SynthUnitTest_bsp/\libucosii_bsp.a(altera_avalon_fifo_util.o)
                              obj/default/hello_ucosii.o (altera_avalon_fifo_init)
../SynthUnitTest_bsp/\libucosii_bsp.a(altera_avalon_jtag_uart_fd.o)
                              ../SynthUnitTest_bsp/\libucosii_bsp.a(alt_sys_init.o) (altera_avalon_jtag_uart_read_fd)
../SynthUnitTest_bsp/\libucosii_bsp.a(altera_avalon_jtag_uart_init.o)
                              ../SynthUnitTest_bsp/\libucosii_bsp.a(alt_sys_init.o) (altera_avalon_jtag_uart_init)
../SynthUnitTest_bsp/\libucosii_bsp.a(altera_avalon_jtag_uart_ioctl.o)
                              ../SynthUnitTest_bsp/\libucosii_bsp.a(altera_avalon_jtag_uart_fd.o) (altera_avalon_jtag_uart_ioctl)
../SynthUnitTest_bsp/\libucosii_bsp.a(altera_avalon_jtag_uart_read.o)
                              ../SynthUnitTest_bsp/\libucosii_bsp.a(altera_avalon_jtag_uart_fd.o) (altera_avalon_jtag_uart_read)
../SynthUnitTest_bsp/\libucosii_bsp.a(altera_avalon_jtag_uart_write.o)
                              ../SynthUnitTest_bsp/\libucosii_bsp.a(altera_avalon_jtag_uart_fd.o) (altera_avalon_jtag_uart_write)
../SynthUnitTest_bsp/\libucosii_bsp.a(altera_avalon_timer_sc.o)
                              ../SynthUnitTest_bsp/\libucosii_bsp.a(alt_sys_init.o) (alt_avalon_timer_sc_init)
../SynthUnitTest_bsp/\libucosii_bsp.a(altera_up_avalon_character_lcd.o)
                              ../SynthUnitTest_bsp/\libucosii_bsp.a(alt_sys_init.o) (alt_up_character_lcd_init)
../SynthUnitTest_bsp/\libucosii_bsp.a(alt_alarm_start.o)
                              ../SynthUnitTest_bsp/\libucosii_bsp.a(altera_avalon_jtag_uart_init.o) (alt_alarm_start)
../SynthUnitTest_bsp/\libucosii_bsp.a(alt_dcache_flush_all.o)
                              ../SynthUnitTest_bsp/\libucosii_bsp.a(alt_load.o) (alt_dcache_flush_all)
../SynthUnitTest_bsp/\libucosii_bsp.a(alt_dev_llist_insert.o)
                              ../SynthUnitTest_bsp/\libucosii_bsp.a(alt_sys_init.o) (alt_dev_llist_insert)
../SynthUnitTest_bsp/\libucosii_bsp.a(alt_do_ctors.o)
                              ../SynthUnitTest_bsp/\libucosii_bsp.a(alt_main.o) (_do_ctors)
../SynthUnitTest_bsp/\libucosii_bsp.a(alt_do_dtors.o)
                              ../SynthUnitTest_bsp/\libucosii_bsp.a(alt_main.o) (_do_dtors)
../SynthUnitTest_bsp/\libucosii_bsp.a(alt_find_dev.o)
                              ../SynthUnitTest_bsp/\libucosii_bsp.a(altera_up_avalon_character_lcd.o) (alt_find_dev)
../SynthUnitTest_bsp/\libucosii_bsp.a(alt_icache_flush_all.o)
                              ../SynthUnitTest_bsp/\libucosii_bsp.a(alt_load.o) (alt_icache_flush_all)
../SynthUnitTest_bsp/\libucosii_bsp.a(alt_iic.o)
                              ../SynthUnitTest_bsp/\libucosii_bsp.a(altera_avalon_jtag_uart_init.o) (alt_ic_isr_register)
../SynthUnitTest_bsp/\libucosii_bsp.a(alt_iic_isr_register.o)
                              ../SynthUnitTest_bsp/\libucosii_bsp.a(alt_iic.o) (alt_iic_isr_register)
../SynthUnitTest_bsp/\libucosii_bsp.a(alt_io_redirect.o)
                              ../SynthUnitTest_bsp/\libucosii_bsp.a(alt_main.o) (alt_io_redirect)
../SynthUnitTest_bsp/\libucosii_bsp.a(alt_irq_entry.o)
                              ../SynthUnitTest_bsp/\libucosii_bsp.a(alt_iic_isr_register.o) (alt_irq_entry)
../SynthUnitTest_bsp/\libucosii_bsp.a(alt_irq_handler.o)
                              ../SynthUnitTest_bsp/\libucosii_bsp.a(alt_iic_isr_register.o) (alt_irq_handler)
../SynthUnitTest_bsp/\libucosii_bsp.a(alt_irq_vars.o)
                              ../SynthUnitTest_bsp/\libucosii_bsp.a(alt_iic.o) (alt_irq_active)
../SynthUnitTest_bsp/\libucosii_bsp.a(alt_open.o)
                              ../SynthUnitTest_bsp/\libucosii_bsp.a(alt_io_redirect.o) (open)
../SynthUnitTest_bsp/\libucosii_bsp.a(alt_tick.o)
                              ../SynthUnitTest_bsp/\libucosii_bsp.a(altera_avalon_jtag_uart_init.o) (_alt_tick_rate)
../SynthUnitTest_bsp/\libucosii_bsp.a(altera_nios2_qsys_irq.o)
                              ../SynthUnitTest_bsp/\libucosii_bsp.a(alt_sys_init.o) (altera_nios2_qsys_irq_init)
../SynthUnitTest_bsp/\libucosii_bsp.a(os_cpu_a.o)
                              ../SynthUnitTest_bsp/\libucosii_bsp.a(os_core.o) (OSIntCtxSw)
../SynthUnitTest_bsp/\libucosii_bsp.a(os_cpu_c.o)
                              ../SynthUnitTest_bsp/\libucosii_bsp.a(os_task.o) (OSTaskStkInit)
../SynthUnitTest_bsp/\libucosii_bsp.a(alt_exception_entry.o)
                              ../SynthUnitTest_bsp/\libucosii_bsp.a(alt_irq_entry.o) (alt_exception)
../SynthUnitTest_bsp/\libucosii_bsp.a(alt_find_file.o)
                              ../SynthUnitTest_bsp/\libucosii_bsp.a(alt_open.o) (alt_find_file)
../SynthUnitTest_bsp/\libucosii_bsp.a(alt_get_fd.o)
                              ../SynthUnitTest_bsp/\libucosii_bsp.a(alt_open.o) (alt_get_fd)
../SynthUnitTest_bsp/\libucosii_bsp.a(alt_icache_flush.o)
                              ../SynthUnitTest_bsp/\libucosii_bsp.a(alt_icache_flush_all.o) (alt_icache_flush)
c:/altera/12.1sp1/nios2eds/bin/gnu/h-i686-mingw32/bin/../lib/gcc/nios2-elf/4.1.2/../../../../nios2-elf/lib\libc.a(lib_a-atexit.o)
                              ../SynthUnitTest_bsp/\libucosii_bsp.a(alt_main.o) (atexit)
c:/altera/12.1sp1/nios2eds/bin/gnu/h-i686-mingw32/bin/../lib/gcc/nios2-elf/4.1.2/../../../../nios2-elf/lib\libc.a(lib_a-exit.o)
                              ../SynthUnitTest_bsp/\libucosii_bsp.a(alt_main.o) (exit)
c:/altera/12.1sp1/nios2eds/bin/gnu/h-i686-mingw32/bin/../lib/gcc/nios2-elf/4.1.2/../../../../nios2-elf/lib\libc.a(lib_a-memcmp.o)
                              ../SynthUnitTest_bsp/\libucosii_bsp.a(alt_find_dev.o) (memcmp)
c:/altera/12.1sp1/nios2eds/bin/gnu/h-i686-mingw32/bin/../lib/gcc/nios2-elf/4.1.2/../../../../nios2-elf/lib\libc.a(lib_a-__atexit.o)
                              c:/altera/12.1sp1/nios2eds/bin/gnu/h-i686-mingw32/bin/../lib/gcc/nios2-elf/4.1.2/../../../../nios2-elf/lib\libc.a(lib_a-atexit.o) (__register_exitproc)
c:/altera/12.1sp1/nios2eds/bin/gnu/h-i686-mingw32/bin/../lib/gcc/nios2-elf/4.1.2/../../../../nios2-elf/lib\libc.a(lib_a-__call_atexit.o)
                              c:/altera/12.1sp1/nios2eds/bin/gnu/h-i686-mingw32/bin/../lib/gcc/nios2-elf/4.1.2/../../../../nios2-elf/lib\libc.a(lib_a-exit.o) (__call_exitprocs)
../SynthUnitTest_bsp/\libucosii_bsp.a(alt_exit.o)
                              c:/altera/12.1sp1/nios2eds/bin/gnu/h-i686-mingw32/bin/../lib/gcc/nios2-elf/4.1.2/../../../../nios2-elf/lib\libc.a(lib_a-exit.o) (_exit)

Allocating common symbols
Common symbol       size              file

alt_irq             0x100             ../SynthUnitTest_bsp/\libucosii_bsp.a(alt_irq_handler.o)
task1_stk           0x2000            obj/default/hello_ucosii.o
OSLockNesting       0x1               ../SynthUnitTest_bsp/\libucosii_bsp.a(os_core.o)
OSRunning           0x1               ../SynthUnitTest_bsp/\libucosii_bsp.a(os_core.o)
OSIdleCtr           0x4               ../SynthUnitTest_bsp/\libucosii_bsp.a(os_core.o)
OSPrioHighRdy       0x1               ../SynthUnitTest_bsp/\libucosii_bsp.a(os_core.o)
errno               0x4               c:/altera/12.1sp1/nios2eds/bin/gnu/h-i686-mingw32/bin/../lib/gcc/nios2-elf/4.1.2/../../../../nios2-elf/lib\libc.a(lib_a-int_errno.o)
alt_heapsem         0x4               ../SynthUnitTest_bsp/\libucosii_bsp.a(alt_malloc_lock.o)
OSFlagTbl           0x370             ../SynthUnitTest_bsp/\libucosii_bsp.a(os_core.o)
OSPrioCur           0x1               ../SynthUnitTest_bsp/\libucosii_bsp.a(os_core.o)
OSTCBList           0x4               ../SynthUnitTest_bsp/\libucosii_bsp.a(os_core.o)
alt_fd_list_lock    0x4               ../SynthUnitTest_bsp/\libucosii_bsp.a(alt_dev.o)
OSMemTbl            0xc30             ../SynthUnitTest_bsp/\libucosii_bsp.a(os_core.o)
OSTickStepState     0x1               ../SynthUnitTest_bsp/\libucosii_bsp.a(os_core.o)
OSTaskStatStk       0x800             ../SynthUnitTest_bsp/\libucosii_bsp.a(os_core.o)
OSCtxSwCtr          0x4               ../SynthUnitTest_bsp/\libucosii_bsp.a(os_core.o)
OSIdleCtrMax        0x4               ../SynthUnitTest_bsp/\libucosii_bsp.a(os_core.o)
OSTCBFreeList       0x4               ../SynthUnitTest_bsp/\libucosii_bsp.a(os_core.o)
OSCPUUsage          0x1               ../SynthUnitTest_bsp/\libucosii_bsp.a(os_core.o)
OSTaskCtr           0x1               ../SynthUnitTest_bsp/\libucosii_bsp.a(os_core.o)
OSMemFreeList       0x4               ../SynthUnitTest_bsp/\libucosii_bsp.a(os_core.o)
OSQTbl              0x1e0             ../SynthUnitTest_bsp/\libucosii_bsp.a(os_core.o)
OSTCBHighRdy        0x4               ../SynthUnitTest_bsp/\libucosii_bsp.a(os_core.o)
OSQFreeList         0x4               ../SynthUnitTest_bsp/\libucosii_bsp.a(os_core.o)
OSRdyGrp            0x1               ../SynthUnitTest_bsp/\libucosii_bsp.a(os_core.o)
_atexit0            0x190             c:/altera/12.1sp1/nios2eds/bin/gnu/h-i686-mingw32/bin/../lib/gcc/nios2-elf/4.1.2/../../../../nios2-elf/lib\libc.a(lib_a-atexit.o)
OSRdyTbl            0x3               ../SynthUnitTest_bsp/\libucosii_bsp.a(os_core.o)
OSEventFreeList     0x4               ../SynthUnitTest_bsp/\libucosii_bsp.a(os_core.o)
OSIntNesting        0x1               ../SynthUnitTest_bsp/\libucosii_bsp.a(os_core.o)
OSTCBCur            0x4               ../SynthUnitTest_bsp/\libucosii_bsp.a(os_core.o)
OSTime              0x4               ../SynthUnitTest_bsp/\libucosii_bsp.a(os_core.o)
OSTaskIdleStk       0x800             ../SynthUnitTest_bsp/\libucosii_bsp.a(os_core.o)
OSEventTbl          0xb40             ../SynthUnitTest_bsp/\libucosii_bsp.a(os_core.o)
OSTCBTbl            0x510             ../SynthUnitTest_bsp/\libucosii_bsp.a(os_core.o)
OSFlagFreeList      0x4               ../SynthUnitTest_bsp/\libucosii_bsp.a(os_core.o)
OSStatRdy           0x1               ../SynthUnitTest_bsp/\libucosii_bsp.a(os_core.o)
OSTCBPrioTbl        0x54              ../SynthUnitTest_bsp/\libucosii_bsp.a(os_core.o)
alt_envsem          0x4               ../SynthUnitTest_bsp/\libucosii_bsp.a(alt_env_lock.o)
OSIdleCtrRun        0x4               ../SynthUnitTest_bsp/\libucosii_bsp.a(os_core.o)

Memory Configuration

Name             Origin             Length             Attributes
sdram_0          0x00800000         0x00800000
sram_0           0x01080000         0x00080000
reset            0x01104000         0x00000020
onchip_memory2_0 0x01104020         0x00003fe0
*default*        0x00000000         0xffffffff

Linker script and memory map

LOAD ../SynthUnitTest_bsp//obj/HAL/src/crt0.o
LOAD obj/default/hello_ucosii.o
LOAD c:/altera/12.1sp1/nios2eds/bin/gnu/h-i686-mingw32/bin/../lib/gcc/nios2-elf/4.1.2/../../../../nios2-elf/lib\libstdc++.a
LOAD c:/altera/12.1sp1/nios2eds/bin/gnu/h-i686-mingw32/bin/../lib/gcc/nios2-elf/4.1.2/../../../../nios2-elf/lib\libm.a
LOAD c:/altera/12.1sp1/nios2eds/bin/gnu/h-i686-mingw32/bin/../lib/gcc/nios2-elf/4.1.2\libgcc.a
START GROUP
LOAD c:/altera/12.1sp1/nios2eds/bin/gnu/h-i686-mingw32/bin/../lib/gcc/nios2-elf/4.1.2/../../../../nios2-elf/lib\libc.a
LOAD c:/altera/12.1sp1/nios2eds/bin/gnu/h-i686-mingw32/bin/../lib/gcc/nios2-elf/4.1.2\libgcc.a
LOAD ../SynthUnitTest_bsp/\libucosii_bsp.a
END GROUP
LOAD c:/altera/12.1sp1/nios2eds/bin/gnu/h-i686-mingw32/bin/../lib/gcc/nios2-elf/4.1.2\libgcc.a
                0x00800000                __alt_mem_sdram_0 = 0x800000
                0x01080000                __alt_mem_sram_0 = 0x1080000
                0x01104000                __alt_mem_onchip_memory2_0 = 0x1104000

.entry          0x01104000       0x20
 *(.entry)
 .entry         0x01104000       0x20 ../SynthUnitTest_bsp//obj/HAL/src/crt0.o
                0x01104000                __reset

.exceptions     0x01104020      0x19c load address 0x00800000
                0x01104020                PROVIDE (__ram_exceptions_start, ABSOLUTE (.))
                0x01104020                . = ALIGN (0x20)
 *(.irq)
 *(.exceptions.entry.label)
 .exceptions.entry.label
                0x01104020        0x0 ../SynthUnitTest_bsp/\libucosii_bsp.a(alt_irq_entry.o)
                0x01104020                alt_irq_entry
 .exceptions.entry.label
                0x01104020        0x0 ../SynthUnitTest_bsp/\libucosii_bsp.a(alt_exception_entry.o)
                0x01104020                alt_exception
 *(.exceptions.entry.user)
 *(.exceptions.entry)
 .exceptions.entry
                0x01104020       0x54 ../SynthUnitTest_bsp/\libucosii_bsp.a(alt_exception_entry.o)
 *(.exceptions.irqtest.user)
 *(.exceptions.irqtest)
 .exceptions.irqtest
                0x01104074       0x10 ../SynthUnitTest_bsp/\libucosii_bsp.a(alt_irq_entry.o)
 *(.exceptions.irqhandler.user)
 *(.exceptions.irqhandler)
 .exceptions.irqhandler
                0x01104084        0x4 ../SynthUnitTest_bsp/\libucosii_bsp.a(alt_irq_entry.o)
 *(.exceptions.irqreturn.user)
 *(.exceptions.irqreturn)
 .exceptions.irqreturn
                0x01104088        0x4 ../SynthUnitTest_bsp/\libucosii_bsp.a(alt_irq_entry.o)
 *(.exceptions.notirq.label)
 .exceptions.notirq.label
                0x0110408c        0x0 ../SynthUnitTest_bsp/\libucosii_bsp.a(alt_irq_entry.o)
 *(.exceptions.notirq.user)
 *(.exceptions.notirq)
 .exceptions.notirq
                0x0110408c        0x8 ../SynthUnitTest_bsp/\libucosii_bsp.a(alt_exception_entry.o)
 *(.exceptions.soft.user)
 *(.exceptions.soft)
 *(.exceptions.unknown.user)
 *(.exceptions.unknown)
 .exceptions.unknown
                0x01104094        0x4 ../SynthUnitTest_bsp/\libucosii_bsp.a(alt_exception_entry.o)
 *(.exceptions.exit.label)
 .exceptions.exit.label
                0x01104098        0x0 ../SynthUnitTest_bsp/\libucosii_bsp.a(alt_irq_entry.o)
 .exceptions.exit.label
                0x01104098        0x0 ../SynthUnitTest_bsp/\libucosii_bsp.a(alt_exception_entry.o)
 *(.exceptions.exit.user)
 *(.exceptions.exit)
 .exceptions.exit
                0x01104098       0x54 ../SynthUnitTest_bsp/\libucosii_bsp.a(alt_exception_entry.o)
 *(.exceptions)
 .exceptions    0x011040ec       0xd0 ../SynthUnitTest_bsp/\libucosii_bsp.a(alt_irq_handler.o)
                0x011040ec                alt_irq_handler
                0x011041bc                PROVIDE (__ram_exceptions_end, ABSOLUTE (.))
                0x00800000                PROVIDE (__flash_exceptions_start, LOADADDR (.exceptions))

.text           0x0080019c    0x15e2c
                0x0080019c                PROVIDE (stext, ABSOLUTE (.))
 *(.interp)
 *(.hash)
 *(.dynsym)
 *(.dynstr)
 *(.gnu.version)
 *(.gnu.version_d)
 *(.gnu.version_r)
 *(.rel.init)
 *(.rela.init)
 *(.rel.text .rel.text.* .rel.gnu.linkonce.t.*)
 *(.rela.text .rela.text.* .rela.gnu.linkonce.t.*)
 *(.rel.fini)
 *(.rela.fini)
 *(.rel.rodata .rel.rodata.* .rel.gnu.linkonce.r.*)
 *(.rela.rodata .rela.rodata.* .rela.gnu.linkonce.r.*)
 *(.rel.data .rel.data.* .rel.gnu.linkonce.d.*)
 *(.rela.data .rela.data.* .rela.gnu.linkonce.d.*)
 *(.rel.tdata .rel.tdata.* .rel.gnu.linkonce.td.*)
 *(.rela.tdata .rela.tdata.* .rela.gnu.linkonce.td.*)
 *(.rel.tbss .rel.tbss.* .rel.gnu.linkonce.tb.*)
 *(.rela.tbss .rela.tbss.* .rela.gnu.linkonce.tb.*)
 *(.rel.ctors)
 *(.rela.ctors)
 *(.rel.dtors)
 *(.rela.dtors)
 *(.rel.got)
 *(.rela.got)
 *(.rel.sdata .rel.sdata.* .rel.gnu.linkonce.s.*)
 *(.rela.sdata .rela.sdata.* .rela.gnu.linkonce.s.*)
 *(.rel.sbss .rel.sbss.* .rel.gnu.linkonce.sb.*)
 *(.rela.sbss .rela.sbss.* .rela.gnu.linkonce.sb.*)
 *(.rel.sdata2 .rel.sdata2.* .rel.gnu.linkonce.s2.*)
 *(.rela.sdata2 .rela.sdata2.* .rela.gnu.linkonce.s2.*)
 *(.rel.sbss2 .rel.sbss2.* .rel.gnu.linkonce.sb2.*)
 *(.rela.sbss2 .rela.sbss2.* .rela.gnu.linkonce.sb2.*)
 *(.rel.bss .rel.bss.* .rel.gnu.linkonce.b.*)
 *(.rela.bss .rela.bss.* .rela.gnu.linkonce.b.*)
 *(.rel.plt)
 *(.rela.plt)
 *(.rel.dyn)
 *(.init)
 *(.plt)
 *(.text .stub .text.* .gnu.linkonce.t.*)
 .text          0x0080019c       0x4c ../SynthUnitTest_bsp//obj/HAL/src/crt0.o
                0x0080019c                _start
 .text          0x008001e8      0x110 obj/default/hello_ucosii.o
                0x008001e8                task1
                0x0080028c                main
 .text          0x008002f8      0x14c c:/altera/12.1sp1/nios2eds/bin/gnu/h-i686-mingw32/bin/../lib/gcc/nios2-elf/4.1.2\libgcc.a(lib2-divmod.o)
                0x00800374                __divsi3
                0x008003d4                __modsi3
                0x00800434                __udivsi3
                0x0080043c                __umodsi3
 .text          0x00800444       0x78 c:/altera/12.1sp1/nios2eds/bin/gnu/h-i686-mingw32/bin/../lib/gcc/nios2-elf/4.1.2/../../../../nios2-elf/lib\libc.a(lib_a-printf.o)
                0x00800444                printf
                0x00800488                _printf_r
 .text          0x008004bc       0x24 c:/altera/12.1sp1/nios2eds/bin/gnu/h-i686-mingw32/bin/../lib/gcc/nios2-elf/4.1.2/../../../../nios2-elf/lib\libc.a(lib_a-putchar.o)
                0x008004bc                putchar
                0x008004d8                _putchar_r
 .text          0x008004e0     0x1f28 c:/altera/12.1sp1/nios2eds/bin/gnu/h-i686-mingw32/bin/../lib/gcc/nios2-elf/4.1.2/../../../../nios2-elf/lib\libc.a(lib_a-vfprintf.o)
                0x00800538                ___vfprintf_internal_r
                0x008023e4                __vfprintf_internal
 .text          0x00802408      0x13c c:/altera/12.1sp1/nios2eds/bin/gnu/h-i686-mingw32/bin/../lib/gcc/nios2-elf/4.1.2/../../../../nios2-elf/lib\libc.a(lib_a-wsetup.o)
                0x00802408                __swsetup_r
 .text          0x00802544     0x17cc c:/altera/12.1sp1/nios2eds/bin/gnu/h-i686-mingw32/bin/../lib/gcc/nios2-elf/4.1.2/../../../../nios2-elf/lib\libc.a(lib_a-dtoa.o)
                0x0080275c                _dtoa_r
 .text          0x00803d10      0x230 c:/altera/12.1sp1/nios2eds/bin/gnu/h-i686-mingw32/bin/../lib/gcc/nios2-elf/4.1.2/../../../../nios2-elf/lib\libc.a(lib_a-fflush.o)
                0x00803d10                _fflush_r
                0x00803f0c                fflush
 .text          0x00803f40      0x2c0 c:/altera/12.1sp1/nios2eds/bin/gnu/h-i686-mingw32/bin/../lib/gcc/nios2-elf/4.1.2/../../../../nios2-elf/lib\libc.a(lib_a-findfp.o)
                0x00803f98                __sfp_lock_acquire
                0x00803f9c                __sfp_lock_release
                0x00803fa0                __sinit_lock_acquire
                0x00803fa4                __sinit_lock_release
                0x00803fa8                __sinit
                0x0080405c                __fp_unlock_all
                0x00804074                __fp_lock_all
                0x0080408c                _cleanup_r
                0x00804098                _cleanup
                0x008040a8                __sfmoreglue
                0x00804110                __sfp
 .text          0x00804200      0x440 c:/altera/12.1sp1/nios2eds/bin/gnu/h-i686-mingw32/bin/../lib/gcc/nios2-elf/4.1.2/../../../../nios2-elf/lib\libc.a(lib_a-freer.o)
                0x00804200                _malloc_trim_r
                0x0080432c                _free_r
 .text          0x00804640      0x49c c:/altera/12.1sp1/nios2eds/bin/gnu/h-i686-mingw32/bin/../lib/gcc/nios2-elf/4.1.2/../../../../nios2-elf/lib\libc.a(lib_a-fvwrite.o)
                0x00804640                __sfvwrite_r
 .text          0x00804adc      0x180 c:/altera/12.1sp1/nios2eds/bin/gnu/h-i686-mingw32/bin/../lib/gcc/nios2-elf/4.1.2/../../../../nios2-elf/lib\libc.a(lib_a-fwalk.o)
                0x00804adc                _fwalk_reent
                0x00804ba4                _fwalk
 .text          0x00804c5c        0x0 c:/altera/12.1sp1/nios2eds/bin/gnu/h-i686-mingw32/bin/../lib/gcc/nios2-elf/4.1.2/../../../../nios2-elf/lib\libc.a(lib_a-impure.o)
 .text          0x00804c5c       0xc4 c:/altera/12.1sp1/nios2eds/bin/gnu/h-i686-mingw32/bin/../lib/gcc/nios2-elf/4.1.2/../../../../nios2-elf/lib\libc.a(lib_a-locale.o)
                0x00804c5c                __locale_charset
                0x00804c64                _localeconv_r
                0x00804c70                localeconv
                0x00804c80                _setlocale_r
                0x00804d04                setlocale
 .text          0x00804d20      0x194 c:/altera/12.1sp1/nios2eds/bin/gnu/h-i686-mingw32/bin/../lib/gcc/nios2-elf/4.1.2/../../../../nios2-elf/lib\libc.a(lib_a-makebuf.o)
                0x00804d20                __smakebuf_r
 .text          0x00804eb4      0x740 c:/altera/12.1sp1/nios2eds/bin/gnu/h-i686-mingw32/bin/../lib/gcc/nios2-elf/4.1.2/../../../../nios2-elf/lib\libc.a(lib_a-mallocr.o)
                0x00804eb4                _malloc_r
 .text          0x008055f4       0xe4 c:/altera/12.1sp1/nios2eds/bin/gnu/h-i686-mingw32/bin/../lib/gcc/nios2-elf/4.1.2/../../../../nios2-elf/lib\libc.a(lib_a-memchr.o)
                0x008055f4                memchr
 .text          0x008056d8       0xa0 c:/altera/12.1sp1/nios2eds/bin/gnu/h-i686-mingw32/bin/../lib/gcc/nios2-elf/4.1.2/../../../../nios2-elf/lib\libc.a(lib_a-memcpy.o)
                0x008056d8                memcpy
 .text          0x00805778       0xe0 c:/altera/12.1sp1/nios2eds/bin/gnu/h-i686-mingw32/bin/../lib/gcc/nios2-elf/4.1.2/../../../../nios2-elf/lib\libc.a(lib_a-memmove.o)
                0x00805778                memmove
 .text          0x00805858       0x98 c:/altera/12.1sp1/nios2eds/bin/gnu/h-i686-mingw32/bin/../lib/gcc/nios2-elf/4.1.2/../../../../nios2-elf/lib\libc.a(lib_a-memset.o)
                0x00805858                memset
 .text          0x008058f0      0xff4 c:/altera/12.1sp1/nios2eds/bin/gnu/h-i686-mingw32/bin/../lib/gcc/nios2-elf/4.1.2/../../../../nios2-elf/lib\libc.a(lib_a-mprec.o)
                0x008058f0                _Bfree
                0x00805918                __hi0bits
                0x00805988                __lo0bits
                0x00805a4c                __mcmp
                0x00805aac                __ulp
                0x00805b2c                __b2d
                0x00805c4c                __ratio
                0x00805cfc                _mprec_log10
                0x00805d90                __copybits
                0x00805de8                __any_on
                0x00805e70                _Balloc
                0x00805f2c                __d2b
                0x008060a8                __mdiff
                0x00806234                __lshift
                0x00806380                __multiply
                0x00806568                __i2b
                0x008065a4                __multadd
                0x008066a4                __pow5mult
                0x008067c4                __s2b
 .text          0x008068e4      0x1ec c:/altera/12.1sp1/nios2eds/bin/gnu/h-i686-mingw32/bin/../lib/gcc/nios2-elf/4.1.2/../../../../nios2-elf/lib\libc.a(lib_a-putc.o)
                0x008068e4                putc
                0x008069e8                _putc_r
 .text          0x00806ad0      0x5f4 c:/altera/12.1sp1/nios2eds/bin/gnu/h-i686-mingw32/bin/../lib/gcc/nios2-elf/4.1.2/../../../../nios2-elf/lib\libc.a(lib_a-reallocr.o)
                0x00806ad0                _realloc_r
 .text          0x008070c4       0x40 c:/altera/12.1sp1/nios2eds/bin/gnu/h-i686-mingw32/bin/../lib/gcc/nios2-elf/4.1.2/../../../../nios2-elf/lib\libc.a(lib_a-s_isinfd.o)
                0x008070c4                __isinfd
 .text          0x00807104       0x30 c:/altera/12.1sp1/nios2eds/bin/gnu/h-i686-mingw32/bin/../lib/gcc/nios2-elf/4.1.2/../../../../nios2-elf/lib\libc.a(lib_a-s_isnand.o)
                0x00807104                __isnand
 .text          0x00807134       0x70 c:/altera/12.1sp1/nios2eds/bin/gnu/h-i686-mingw32/bin/../lib/gcc/nios2-elf/4.1.2/../../../../nios2-elf/lib\libc.a(lib_a-sbrkr.o)
                0x00807134                _sbrk_r
 .text          0x008071a4      0x14c c:/altera/12.1sp1/nios2eds/bin/gnu/h-i686-mingw32/bin/../lib/gcc/nios2-elf/4.1.2/../../../../nios2-elf/lib\libc.a(lib_a-stdio.o)
                0x008071a4                __sclose
                0x008071ac                __sseek
                0x00807214                __swrite
                0x00807290                __sread
 .text          0x008072f0       0xbc c:/altera/12.1sp1/nios2eds/bin/gnu/h-i686-mingw32/bin/../lib/gcc/nios2-elf/4.1.2/../../../../nios2-elf/lib\libc.a(lib_a-strcmp.o)
                0x008072f0                strcmp
 .text          0x008073ac       0x74 c:/altera/12.1sp1/nios2eds/bin/gnu/h-i686-mingw32/bin/../lib/gcc/nios2-elf/4.1.2/../../../../nios2-elf/lib\libc.a(lib_a-strlen.o)
                0x008073ac                strlen
 .text          0x00807420      0x14c c:/altera/12.1sp1/nios2eds/bin/gnu/h-i686-mingw32/bin/../lib/gcc/nios2-elf/4.1.2/../../../../nios2-elf/lib\libc.a(lib_a-wbuf.o)
                0x00807420                __swbuf_r
                0x00807550                __swbuf
 .text          0x0080756c       0x78 c:/altera/12.1sp1/nios2eds/bin/gnu/h-i686-mingw32/bin/../lib/gcc/nios2-elf/4.1.2/../../../../nios2-elf/lib\libc.a(lib_a-writer.o)
                0x0080756c                _write_r
 .text          0x008075e4       0xb4 c:/altera/12.1sp1/nios2eds/bin/gnu/h-i686-mingw32/bin/../lib/gcc/nios2-elf/4.1.2/../../../../nios2-elf/lib\libc.a(lib_a-callocr.o)
                0x008075e4                _calloc_r
 .text          0x00807698       0x70 c:/altera/12.1sp1/nios2eds/bin/gnu/h-i686-mingw32/bin/../lib/gcc/nios2-elf/4.1.2/../../../../nios2-elf/lib\libc.a(lib_a-closer.o)
                0x00807698                _close_r
 .text          0x00807708      0x124 c:/altera/12.1sp1/nios2eds/bin/gnu/h-i686-mingw32/bin/../lib/gcc/nios2-elf/4.1.2/../../../../nios2-elf/lib\libc.a(lib_a-fclose.o)
                0x00807708                _fclose_r
                0x00807818                fclose
 .text          0x0080782c       0x74 c:/altera/12.1sp1/nios2eds/bin/gnu/h-i686-mingw32/bin/../lib/gcc/nios2-elf/4.1.2/../../../../nios2-elf/lib\libc.a(lib_a-fstatr.o)
                0x0080782c                _fstat_r
 .text          0x008078a0        0x0 c:/altera/12.1sp1/nios2eds/bin/gnu/h-i686-mingw32/bin/../lib/gcc/nios2-elf/4.1.2/../../../../nios2-elf/lib\libc.a(lib_a-int_errno.o)
 .text          0x008078a0       0x70 c:/altera/12.1sp1/nios2eds/bin/gnu/h-i686-mingw32/bin/../lib/gcc/nios2-elf/4.1.2/../../../../nios2-elf/lib\libc.a(lib_a-isattyr.o)
                0x008078a0                _isatty_r
 .text          0x00807910       0x78 c:/altera/12.1sp1/nios2eds/bin/gnu/h-i686-mingw32/bin/../lib/gcc/nios2-elf/4.1.2/../../../../nios2-elf/lib\libc.a(lib_a-lseekr.o)
                0x00807910                _lseek_r
 .text          0x00807988       0x78 c:/altera/12.1sp1/nios2eds/bin/gnu/h-i686-mingw32/bin/../lib/gcc/nios2-elf/4.1.2/../../../../nios2-elf/lib\libc.a(lib_a-readr.o)
                0x00807988                _read_r
 .text          0x00807a00      0x5dc c:/altera/12.1sp1/nios2eds/bin/gnu/h-i686-mingw32/bin/../lib/gcc/nios2-elf/4.1.2\libgcc.a(_udivdi3.o)
                0x00807a00                __udivdi3
 .text          0x00807fdc      0x5b0 c:/altera/12.1sp1/nios2eds/bin/gnu/h-i686-mingw32/bin/../lib/gcc/nios2-elf/4.1.2\libgcc.a(_umoddi3.o)
                0x00807fdc                __umoddi3
 .text          0x0080858c      0x504 c:/altera/12.1sp1/nios2eds/bin/gnu/h-i686-mingw32/bin/../lib/gcc/nios2-elf/4.1.2\libgcc.a(_addsub_df.o)
                0x0080899c                __subdf3
                0x00808a1c                __adddf3
 .text          0x00808a90      0x3c4 c:/altera/12.1sp1/nios2eds/bin/gnu/h-i686-mingw32/bin/../lib/gcc/nios2-elf/4.1.2\libgcc.a(_mul_df.o)
                0x00808a90                __muldf3
 .text          0x00808e54      0x258 c:/altera/12.1sp1/nios2eds/bin/gnu/h-i686-mingw32/bin/../lib/gcc/nios2-elf/4.1.2\libgcc.a(_div_df.o)
                0x00808e54                __divdf3
 .text          0x008090ac       0x88 c:/altera/12.1sp1/nios2eds/bin/gnu/h-i686-mingw32/bin/../lib/gcc/nios2-elf/4.1.2\libgcc.a(_eq_df.o)
                0x008090ac                __eqdf2
 .text          0x00809134       0x88 c:/altera/12.1sp1/nios2eds/bin/gnu/h-i686-mingw32/bin/../lib/gcc/nios2-elf/4.1.2\libgcc.a(_ne_df.o)
                0x00809134                __nedf2
 .text          0x008091bc       0x88 c:/altera/12.1sp1/nios2eds/bin/gnu/h-i686-mingw32/bin/../lib/gcc/nios2-elf/4.1.2\libgcc.a(_gt_df.o)
                0x008091bc                __gtdf2
 .text          0x00809244       0x88 c:/altera/12.1sp1/nios2eds/bin/gnu/h-i686-mingw32/bin/../lib/gcc/nios2-elf/4.1.2\libgcc.a(_ge_df.o)
                0x00809244                __gedf2
 .text          0x008092cc       0x88 c:/altera/12.1sp1/nios2eds/bin/gnu/h-i686-mingw32/bin/../lib/gcc/nios2-elf/4.1.2\libgcc.a(_lt_df.o)
                0x008092cc                __ltdf2
 .text          0x00809354       0xf8 c:/altera/12.1sp1/nios2eds/bin/gnu/h-i686-mingw32/bin/../lib/gcc/nios2-elf/4.1.2\libgcc.a(_si_to_df.o)
                0x00809354                __floatsidf
 .text          0x0080944c       0xd8 c:/altera/12.1sp1/nios2eds/bin/gnu/h-i686-mingw32/bin/../lib/gcc/nios2-elf/4.1.2\libgcc.a(_df_to_si.o)
                0x0080944c                __fixdfsi
 .text          0x00809524        0x0 c:/altera/12.1sp1/nios2eds/bin/gnu/h-i686-mingw32/bin/../lib/gcc/nios2-elf/4.1.2\libgcc.a(_thenan_df.o)
 .text          0x00809524      0x194 c:/altera/12.1sp1/nios2eds/bin/gnu/h-i686-mingw32/bin/../lib/gcc/nios2-elf/4.1.2\libgcc.a(_usi_to_df.o)
                0x00809524                __floatunsidf
 .text          0x008096b8       0x98 c:/altera/12.1sp1/nios2eds/bin/gnu/h-i686-mingw32/bin/../lib/gcc/nios2-elf/4.1.2\libgcc.a(_muldi3.o)
                0x008096b8                __muldi3
 .text          0x00809750        0x0 c:/altera/12.1sp1/nios2eds/bin/gnu/h-i686-mingw32/bin/../lib/gcc/nios2-elf/4.1.2\libgcc.a(_clz.o)
 .text          0x00809750       0x80 c:/altera/12.1sp1/nios2eds/bin/gnu/h-i686-mingw32/bin/../lib/gcc/nios2-elf/4.1.2\libgcc.a(_clzsi2.o)
                0x00809750                __clzsi2
 .text          0x008097d0      0x314 c:/altera/12.1sp1/nios2eds/bin/gnu/h-i686-mingw32/bin/../lib/gcc/nios2-elf/4.1.2\libgcc.a(_pack_df.o)
                0x008097d0                __pack_d
 .text          0x00809ae4      0x138 c:/altera/12.1sp1/nios2eds/bin/gnu/h-i686-mingw32/bin/../lib/gcc/nios2-elf/4.1.2\libgcc.a(_unpack_df.o)
                0x00809ae4                __unpack_d
 .text          0x00809c1c       0xc8 c:/altera/12.1sp1/nios2eds/bin/gnu/h-i686-mingw32/bin/../lib/gcc/nios2-elf/4.1.2\libgcc.a(_fpcmp_parts_df.o)
                0x00809c1c                __fpcmp_parts_d
 .text          0x00809ce4      0x15c ../SynthUnitTest_bsp/\libucosii_bsp.a(alt_close.o)
                0x00809ce4                close
 .text          0x00809e40       0x2c ../SynthUnitTest_bsp/\libucosii_bsp.a(alt_dev.o)
 .text          0x00809e6c        0x0 ../SynthUnitTest_bsp/\libucosii_bsp.a(alt_errno.o)
 .text          0x00809e6c      0x134 ../SynthUnitTest_bsp/\libucosii_bsp.a(alt_fstat.o)
                0x00809e6c                fstat
 .text          0x00809fa0      0x120 ../SynthUnitTest_bsp/\libucosii_bsp.a(alt_isatty.o)
                0x00809fa0                isatty
 .text          0x0080a0c0       0xec ../SynthUnitTest_bsp/\libucosii_bsp.a(alt_load.o)
                0x0080a0c0                alt_load
 .text          0x0080a1ac      0x150 ../SynthUnitTest_bsp/\libucosii_bsp.a(alt_lseek.o)
                0x0080a1ac                lseek
 .text          0x0080a2fc       0xc8 ../SynthUnitTest_bsp/\libucosii_bsp.a(alt_main.o)
                0x0080a2fc                alt_main
 .text          0x0080a3c4      0x180 ../SynthUnitTest_bsp/\libucosii_bsp.a(alt_read.o)
                0x0080a3c4                read
 .text          0x0080a544       0x60 ../SynthUnitTest_bsp/\libucosii_bsp.a(alt_release_fd.o)
                0x0080a544                alt_release_fd
 .text          0x0080a5a4       0xbc ../SynthUnitTest_bsp/\libucosii_bsp.a(alt_sbrk.o)
                0x0080a5a4                sbrk
 .text          0x0080a660      0x180 ../SynthUnitTest_bsp/\libucosii_bsp.a(alt_write.o)
                0x0080a660                write
 .text          0x0080a7e0      0x108 ../SynthUnitTest_bsp/\libucosii_bsp.a(alt_env_lock.o)
                0x0080a7e0                __env_lock
                0x0080a88c                __env_unlock
 .text          0x0080a8e8      0x1d8 ../SynthUnitTest_bsp/\libucosii_bsp.a(alt_malloc_lock.o)
                0x0080a8e8                __malloc_lock
                0x0080a9f0                __malloc_unlock
 .text          0x0080aac0     0x2128 ../SynthUnitTest_bsp/\libucosii_bsp.a(os_core.o)
                0x0080aac0                OSEventNameGet
                0x0080abf0                OSEventNameSet
                0x0080ad34                OSEventPendMulti
                0x0080b3e8                OSInit
                0x0080b43c                OSIntEnter
                0x0080b4b8                OSIntExit
                0x0080b5b8                OSSchedLock
                0x0080b644                OSSchedUnlock
                0x0080b728                OSStart
                0x0080b798                OSStatInit
                0x0080b844                OSTimeTick
                0x0080ba84                OSVersion
                0x0080baa4                OS_Dummy
                0x0080bac0                OS_EventTaskRdy
                0x0080bc54                OS_EventTaskWait
                0x0080bd64                OS_EventTaskWaitMulti
                0x0080beb8                OS_EventTaskRemove
                0x0080bf70                OS_EventTaskRemoveMulti
                0x0080c074                OS_EventWaitListInit
                0x0080c440                OS_MemClr
                0x0080c494                OS_MemCopy
                0x0080c500                OS_Sched
                0x0080c644                OS_StrCopy
                0x0080c6c4                OS_StrLen
                0x0080c71c                OS_TaskIdle
                0x0080c778                OS_TaskStat
                0x0080c840                OS_TaskStatStkChk
                0x0080c908                OS_TCBInit
 .text          0x0080cbe8      0x18c ../SynthUnitTest_bsp/\libucosii_bsp.a(os_dbg.o)
                0x0080cbe8                OSDebugInit
 .text          0x0080cd74     0x193c ../SynthUnitTest_bsp/\libucosii_bsp.a(os_flag.o)
                0x0080cd74                OSFlagAccept
                0x0080d0a8                OSFlagCreate
                0x0080d1e4                OSFlagDel
                0x0080d48c                OSFlagNameGet
                0x0080d5d0                OSFlagNameSet
                0x0080d724                OSFlagPend
                0x0080dd68                OSFlagPendGetFlagsRdy
                0x0080ddd0                OSFlagPost
                0x0080e178                OSFlagQuery
                0x0080e410                OS_FlagInit
                0x0080e604                OS_FlagUnlink
 .text          0x0080e6b0      0x808 ../SynthUnitTest_bsp/\libucosii_bsp.a(os_mem.o)
                0x0080e6b0                OSMemCreate
                0x0080e8cc                OSMemGet
                0x0080e9d0                OSMemNameGet
                0x0080eadc                OSMemNameSet
                0x0080ebfc                OSMemPut
                0x0080ecec                OSMemQuery
                0x0080ede8                OS_MemInit
 .text          0x0080eeb8     0x1334 ../SynthUnitTest_bsp/\libucosii_bsp.a(os_q.o)
                0x0080eeb8                OSQAccept
                0x0080f00c                OSQCreate
                0x0080f220                OSQDel
                0x0080f520                OSQFlush
                0x0080f5e8                OSQPend
                0x0080f908                OSQPendAbort
                0x0080fa84                OSQPost
                0x0080fc04                OSQPostFront
                0x0080fd8c                OSQPostOpt
                0x0080ffc0                OSQQuery
                0x00810140                OS_QInit
 .text          0x008101ec      0xbc8 ../SynthUnitTest_bsp/\libucosii_bsp.a(os_sem.o)
                0x008101ec                OSSemAccept
                0x008102ac                OSSemCreate
                0x008103c0                OSSemDel
                0x00810660                OSSemPend
                0x008108dc                OSSemPendAbort
                0x00810a58                OSSemPost
                0x00810b80                OSSemQuery
                0x00810cb0                OSSemSet
 .text          0x00810db4     0x1a40 ../SynthUnitTest_bsp/\libucosii_bsp.a(os_task.o)
                0x00810db4                OSTaskChangePrio
                0x00811328                OSTaskCreate
                0x008114fc                OSTaskCreateExt
                0x008116fc                OSTaskDel
                0x00811b08                OSTaskDelReq
                0x00811c78                OSTaskNameGet
                0x00811e30                OSTaskNameSet
                0x00811ff4                OSTaskResume
                0x0081220c                OSTaskStkChk
                0x00812408                OSTaskSuspend
                0x00812634                OSTaskQuery
                0x00812778                OS_TaskStkClr
 .text          0x008127f4      0x598 ../SynthUnitTest_bsp/\libucosii_bsp.a(os_time.o)
                0x008127f4                OSTimeDly
                0x00812940                OSTimeDlyHMSM
                0x00812ab4                OSTimeDlyResume
                0x00812cc4                OSTimeGet
                0x00812d28                OSTimeSet
 .text          0x00812d8c       0xe0 ../SynthUnitTest_bsp/\libucosii_bsp.a(alt_sys_init.o)
                0x00812d8c                alt_irq_init
                0x00812dc0                alt_sys_init
 .text          0x00812e6c      0x560 ../SynthUnitTest_bsp/\libucosii_bsp.a(altera_avalon_fifo_util.o)
                0x00812e6c                altera_avalon_fifo_init
                0x00812f28                altera_avalon_fifo_read_status
                0x00812f64                altera_avalon_fifo_read_ienable
                0x00812fa0                altera_avalon_fifo_read_almostfull
                0x00812fcc                altera_avalon_fifo_read_almostempty
                0x00812ff8                altera_avalon_fifo_read_event
                0x00813034                altera_avalon_fifo_read_level
                0x0081305c                altera_avalon_fifo_clear_event
                0x008130c4                altera_avalon_fifo_write_ienable
                0x00813124                altera_avalon_fifo_write_almostfull
                0x00813184                altera_avalon_fifo_write_almostempty
                0x008131e4                altera_avalon_fifo_write_fifo
                0x00813248                altera_avalon_read_fifo
                0x008132b8                altera_avalon_fifo_read_fifo
                0x00813310                altera_avalon_fifo_write_other_info
                0x00813378                altera_avalon_fifo_read_other_info
                0x008133a4                altera_avalon_fifo_read_backpressure
 .text          0x008133cc      0x148 ../SynthUnitTest_bsp/\libucosii_bsp.a(altera_avalon_jtag_uart_fd.o)
                0x008133cc                altera_avalon_jtag_uart_read_fd
                0x00813424                altera_avalon_jtag_uart_write_fd
                0x0081347c                altera_avalon_jtag_uart_close_fd
                0x008134c4                altera_avalon_jtag_uart_ioctl_fd
 .text          0x00813514      0x584 ../SynthUnitTest_bsp/\libucosii_bsp.a(altera_avalon_jtag_uart_init.o)
                0x00813514                altera_avalon_jtag_uart_init
                0x00813a24                altera_avalon_jtag_uart_close
 .text          0x00813a98       0xf4 ../SynthUnitTest_bsp/\libucosii_bsp.a(altera_avalon_jtag_uart_ioctl.o)
                0x00813a98                altera_avalon_jtag_uart_ioctl
 .text          0x00813b8c      0x2c0 ../SynthUnitTest_bsp/\libucosii_bsp.a(altera_avalon_jtag_uart_read.o)
                0x00813b8c                altera_avalon_jtag_uart_read
 .text          0x00813e4c      0x2dc ../SynthUnitTest_bsp/\libucosii_bsp.a(altera_avalon_jtag_uart_write.o)
                0x00813e4c                altera_avalon_jtag_uart_write
 .text          0x00814128      0x100 ../SynthUnitTest_bsp/\libucosii_bsp.a(altera_avalon_timer_sc.o)
                0x00814198                alt_avalon_timer_sc_init
 .text          0x00814228      0x530 ../SynthUnitTest_bsp/\libucosii_bsp.a(altera_up_avalon_character_lcd.o)
                0x00814228                get_DDRAM_addr
                0x008142a4                alt_up_character_lcd_send_cmd
                0x008142d8                alt_up_character_lcd_init
                0x0081430c                alt_up_character_lcd_open_dev
                0x0081434c                alt_up_character_lcd_write
                0x008143c4                alt_up_character_lcd_string
                0x0081443c                alt_up_character_lcd_write_fd
                0x00814488                alt_up_character_lcd_set_cursor_pos
                0x00814500                alt_up_character_lcd_shift_cursor
                0x008145b0                alt_up_character_lcd_shift_display
                0x00814660                alt_up_character_lcd_erase_pos
                0x008146f0                alt_up_character_lcd_cursor_off
                0x00814724                alt_up_character_lcd_cursor_blink_on
 .text          0x00814758      0x154 ../SynthUnitTest_bsp/\libucosii_bsp.a(alt_alarm_start.o)
                0x00814758                alt_alarm_start
 .text          0x008148ac       0x44 ../SynthUnitTest_bsp/\libucosii_bsp.a(alt_dcache_flush_all.o)
                0x008148ac                alt_dcache_flush_all
 .text          0x008148f0      0x114 ../SynthUnitTest_bsp/\libucosii_bsp.a(alt_dev_llist_insert.o)
                0x008148f0                alt_dev_llist_insert
 .text          0x00814a04       0x64 ../SynthUnitTest_bsp/\libucosii_bsp.a(alt_do_ctors.o)
                0x00814a04                _do_ctors
 .text          0x00814a68       0x64 ../SynthUnitTest_bsp/\libucosii_bsp.a(alt_do_dtors.o)
                0x00814a68                _do_dtors
 .text          0x00814acc       0x94 ../SynthUnitTest_bsp/\libucosii_bsp.a(alt_find_dev.o)
                0x00814acc                alt_find_dev
 .text          0x00814b60       0x30 ../SynthUnitTest_bsp/\libucosii_bsp.a(alt_icache_flush_all.o)
                0x00814b60                alt_icache_flush_all
 .text          0x00814b90      0x1d4 ../SynthUnitTest_bsp/\libucosii_bsp.a(alt_iic.o)
                0x00814b90                alt_ic_isr_register
                0x00814be0                alt_ic_irq_enable
                0x00814c7c                alt_ic_irq_disable
                0x00814d1c                alt_ic_irq_enabled
 .text          0x00814d64       0xf8 ../SynthUnitTest_bsp/\libucosii_bsp.a(alt_iic_isr_register.o)
                0x00814d64                alt_iic_isr_register
 .text          0x00814e5c      0x13c ../SynthUnitTest_bsp/\libucosii_bsp.a(alt_io_redirect.o)
                0x00814f20                alt_io_redirect
 .text          0x00814f98        0x0 ../SynthUnitTest_bsp/\libucosii_bsp.a(alt_irq_entry.o)
 .text          0x00814f98        0x0 ../SynthUnitTest_bsp/\libucosii_bsp.a(alt_irq_handler.o)
 .text          0x00814f98        0x0 ../SynthUnitTest_bsp/\libucosii_bsp.a(alt_irq_vars.o)
 .text          0x00814f98      0x2c4 ../SynthUnitTest_bsp/\libucosii_bsp.a(alt_open.o)
                0x00815074                open
 .text          0x0081525c      0x1a8 ../SynthUnitTest_bsp/\libucosii_bsp.a(alt_tick.o)
                0x0081525c                alt_alarm_stop
                0x008152f4                alt_tick
 .text          0x00815404       0x20 ../SynthUnitTest_bsp/\libucosii_bsp.a(altera_nios2_qsys_irq.o)
                0x00815404                altera_nios2_qsys_irq_init
 .text          0x00815424       0xd0 ../SynthUnitTest_bsp/\libucosii_bsp.a(os_cpu_a.o)
                0x00815424                OSCtxSw
                0x00815424                OSIntCtxSw
                0x008154b0                OSStartHighRdy
                0x008154d0                OSStartTsk
 .text          0x008154f4      0x418 ../SynthUnitTest_bsp/\libucosii_bsp.a(os_cpu_c.o)
                0x008154f4                OSTaskStkInit
                0x00815804                OSTaskCreateHook
                0x00815824                OSTaskDelHook
                0x00815844                OSTaskSwHook
                0x00815860                OSTaskStatHook
                0x0081587c                OSTimeTickHook
                0x00815898                OSInitHookBegin
                0x008158b4                OSInitHookEnd
                0x008158d0                OSTaskIdleHook
                0x008158ec                OSTCBInitHook
 .text          0x0081590c        0x0 ../SynthUnitTest_bsp/\libucosii_bsp.a(alt_exception_entry.o)
 .text          0x0081590c      0x120 ../SynthUnitTest_bsp/\libucosii_bsp.a(alt_find_file.o)
                0x0081590c                alt_find_file
 .text          0x00815a2c       0xf4 ../SynthUnitTest_bsp/\libucosii_bsp.a(alt_get_fd.o)
                0x00815a2c                alt_get_fd
 .text          0x00815b20       0x90 ../SynthUnitTest_bsp/\libucosii_bsp.a(alt_icache_flush.o)
                0x00815b20                alt_icache_flush
 .text          0x00815bb0       0x14 c:/altera/12.1sp1/nios2eds/bin/gnu/h-i686-mingw32/bin/../lib/gcc/nios2-elf/4.1.2/../../../../nios2-elf/lib\libc.a(lib_a-atexit.o)
                0x00815bb0                atexit
 .text          0x00815bc4       0x38 c:/altera/12.1sp1/nios2eds/bin/gnu/h-i686-mingw32/bin/../lib/gcc/nios2-elf/4.1.2/../../../../nios2-elf/lib\libc.a(lib_a-exit.o)
                0x00815bc4                exit
 .text          0x00815bfc       0x74 c:/altera/12.1sp1/nios2eds/bin/gnu/h-i686-mingw32/bin/../lib/gcc/nios2-elf/4.1.2/../../../../nios2-elf/lib\libc.a(lib_a-memcmp.o)
                0x00815bfc                memcmp
 .text          0x00815c70      0x134 c:/altera/12.1sp1/nios2eds/bin/gnu/h-i686-mingw32/bin/../lib/gcc/nios2-elf/4.1.2/../../../../nios2-elf/lib\libc.a(lib_a-__atexit.o)
                0x00815c70                __register_exitproc
 .text          0x00815da4      0x1b4 c:/altera/12.1sp1/nios2eds/bin/gnu/h-i686-mingw32/bin/../lib/gcc/nios2-elf/4.1.2/../../../../nios2-elf/lib\libc.a(lib_a-__call_atexit.o)
                0x00815da8                __call_exitprocs
 .text          0x00815f58       0x6c ../SynthUnitTest_bsp/\libucosii_bsp.a(alt_exit.o)
                0x00815f98                _exit
 *(.gnu.warning.*)
 *(.fini)
                0x00815fc4                PROVIDE (__etext, ABSOLUTE (.))
                0x00815fc4                PROVIDE (_etext, ABSOLUTE (.))
                0x00815fc4                PROVIDE (etext, ABSOLUTE (.))
 *(.eh_frame_hdr)
                0x00815fc4                . = ALIGN (0x4)
                0x00815fc4                PROVIDE (__preinit_array_start, ABSOLUTE (.))
 *(.preinit_array)
                0x00815fc4                PROVIDE (__preinit_array_end, ABSOLUTE (.))
                0x00815fc4                PROVIDE (__init_array_start, ABSOLUTE (.))
 *(.init_array)
                0x00815fc4                PROVIDE (__init_array_end, ABSOLUTE (.))
                0x00815fc4                PROVIDE (__fini_array_start, ABSOLUTE (.))
 *(.fini_array)
                0x00815fc4                PROVIDE (__fini_array_end, ABSOLUTE (.))
 *(.eh_frame)
 *(.gcc_except_table)
 *(.dynamic)
                0x00815fc4                PROVIDE (__CTOR_LIST__, ABSOLUTE (.))
 *(.ctors)
 *(SORT(.ctors.*))
 .ctors.65535   0x00815fc4        0x4 c:/altera/12.1sp1/nios2eds/bin/gnu/h-i686-mingw32/bin/../lib/gcc/nios2-elf/4.1.2/../../../../nios2-elf/lib\libc.a(lib_a-__call_atexit.o)
                0x00815fc8                PROVIDE (__CTOR_END__, ABSOLUTE (.))
                0x00815fc8                PROVIDE (__DTOR_LIST__, ABSOLUTE (.))
 *(.dtors)
 *(SORT(.dtors.*))
                0x00815fc8                PROVIDE (__DTOR_END__, ABSOLUTE (.))
 *(.jcr)
                0x00815fc8                . = ALIGN (0x4)

.rodata         0x00815fc8      0x488
                0x00815fc8                PROVIDE (__ram_rodata_start, ABSOLUTE (.))
                0x00815fc8                . = ALIGN (0x4)
 *(.rodata .rodata.* .gnu.linkonce.r.*)
 .rodata        0x00815fc8        0xc obj/default/hello_ucosii.o
 .rodata.str1.4
                0x00815fd4       0x5e c:/altera/12.1sp1/nios2eds/bin/gnu/h-i686-mingw32/bin/../lib/gcc/nios2-elf/4.1.2/../../../../nios2-elf/lib\libc.a(lib_a-vfprintf.o)
                                 0x60 (size before relaxing)
 .rodata        0x00816032       0x20 c:/altera/12.1sp1/nios2eds/bin/gnu/h-i686-mingw32/bin/../lib/gcc/nios2-elf/4.1.2/../../../../nios2-elf/lib\libc.a(lib_a-vfprintf.o)
 *fill*         0x00816052        0x2 00
 .rodata.str1.4
                0x00816054       0x10 c:/altera/12.1sp1/nios2eds/bin/gnu/h-i686-mingw32/bin/../lib/gcc/nios2-elf/4.1.2/../../../../nios2-elf/lib\libc.a(lib_a-dtoa.o)
                                 0x14 (size before relaxing)
 .rodata.str1.4
                0x00816064        0x2 c:/altera/12.1sp1/nios2eds/bin/gnu/h-i686-mingw32/bin/../lib/gcc/nios2-elf/4.1.2/../../../../nios2-elf/lib\libc.a(lib_a-impure.o)
                                  0x4 (size before relaxing)
 *fill*         0x00816066        0x2 00
 .rodata.str1.4
                0x00816068       0x10 c:/altera/12.1sp1/nios2eds/bin/gnu/h-i686-mingw32/bin/../lib/gcc/nios2-elf/4.1.2/../../../../nios2-elf/lib\libc.a(lib_a-locale.o)
                                 0x18 (size before relaxing)
 .rodata        0x00816078       0x30 c:/altera/12.1sp1/nios2eds/bin/gnu/h-i686-mingw32/bin/../lib/gcc/nios2-elf/4.1.2/../../../../nios2-elf/lib\libc.a(lib_a-locale.o)
 .rodata        0x008160a8      0x124 c:/altera/12.1sp1/nios2eds/bin/gnu/h-i686-mingw32/bin/../lib/gcc/nios2-elf/4.1.2/../../../../nios2-elf/lib\libc.a(lib_a-mprec.o)
                0x008160a8                __mprec_tens
                0x00816170                __mprec_bigtens
                0x00816198                __mprec_tinytens
 .rodata        0x008161cc       0x14 c:/altera/12.1sp1/nios2eds/bin/gnu/h-i686-mingw32/bin/../lib/gcc/nios2-elf/4.1.2\libgcc.a(_thenan_df.o)
                0x008161cc                __thenan_df
 .rodata        0x008161e0      0x100 c:/altera/12.1sp1/nios2eds/bin/gnu/h-i686-mingw32/bin/../lib/gcc/nios2-elf/4.1.2\libgcc.a(_clz.o)
                0x008161e0                __clz_tab
 .rodata        0x008162e0        0xc ../SynthUnitTest_bsp/\libucosii_bsp.a(alt_dev.o)
 .rodata        0x008162ec       0x14 ../SynthUnitTest_bsp/\libucosii_bsp.a(alt_main.o)
 .rodata        0x00816300      0x120 ../SynthUnitTest_bsp/\libucosii_bsp.a(os_core.o)
                0x00816300                OSUnMapTbl
 .rodata        0x00816420       0x2c ../SynthUnitTest_bsp/\libucosii_bsp.a(alt_sys_init.o)
 .rodata        0x0081644c        0x4 ../SynthUnitTest_bsp/\libucosii_bsp.a(os_cpu_c.o)
 *(.rodata1)
                0x00816450                . = ALIGN (0x4)
                0x00816450                PROVIDE (__ram_rodata_end, ABSOLUTE (.))
                0x00815fc8                PROVIDE (__flash_rodata_start, LOADADDR (.rodata))

.rwdata         0x00816450     0x1b10 load address 0x00817f60
                0x00816450                PROVIDE (__ram_rwdata_start, ABSOLUTE (.))
                0x00816450                . = ALIGN (0x4)
 *(.got.plt)
 *(.got)
 *(.data1)
 *(.data .data.* .gnu.linkonce.d.*)
 .data          0x00816450        0x0 ../SynthUnitTest_bsp//obj/HAL/src/crt0.o
 .data          0x00816450        0x0 obj/default/hello_ucosii.o
 .data          0x00816450        0x0 c:/altera/12.1sp1/nios2eds/bin/gnu/h-i686-mingw32/bin/../lib/gcc/nios2-elf/4.1.2\libgcc.a(lib2-divmod.o)
 .data          0x00816450        0x0 c:/altera/12.1sp1/nios2eds/bin/gnu/h-i686-mingw32/bin/../lib/gcc/nios2-elf/4.1.2/../../../../nios2-elf/lib\libc.a(lib_a-printf.o)
 .data          0x00816450        0x0 c:/altera/12.1sp1/nios2eds/bin/gnu/h-i686-mingw32/bin/../lib/gcc/nios2-elf/4.1.2/../../../../nios2-elf/lib\libc.a(lib_a-putchar.o)
 .data          0x00816450        0x0 c:/altera/12.1sp1/nios2eds/bin/gnu/h-i686-mingw32/bin/../lib/gcc/nios2-elf/4.1.2/../../../../nios2-elf/lib\libc.a(lib_a-vfprintf.o)
 .data          0x00816450        0x0 c:/altera/12.1sp1/nios2eds/bin/gnu/h-i686-mingw32/bin/../lib/gcc/nios2-elf/4.1.2/../../../../nios2-elf/lib\libc.a(lib_a-wsetup.o)
 .data          0x00816450        0x0 c:/altera/12.1sp1/nios2eds/bin/gnu/h-i686-mingw32/bin/../lib/gcc/nios2-elf/4.1.2/../../../../nios2-elf/lib\libc.a(lib_a-dtoa.o)
 .data          0x00816450        0x0 c:/altera/12.1sp1/nios2eds/bin/gnu/h-i686-mingw32/bin/../lib/gcc/nios2-elf/4.1.2/../../../../nios2-elf/lib\libc.a(lib_a-fflush.o)
 .data          0x00816450        0x0 c:/altera/12.1sp1/nios2eds/bin/gnu/h-i686-mingw32/bin/../lib/gcc/nios2-elf/4.1.2/../../../../nios2-elf/lib\libc.a(lib_a-findfp.o)
 .data          0x00816450        0x0 c:/altera/12.1sp1/nios2eds/bin/gnu/h-i686-mingw32/bin/../lib/gcc/nios2-elf/4.1.2/../../../../nios2-elf/lib\libc.a(lib_a-freer.o)
 .data          0x00816450        0x0 c:/altera/12.1sp1/nios2eds/bin/gnu/h-i686-mingw32/bin/../lib/gcc/nios2-elf/4.1.2/../../../../nios2-elf/lib\libc.a(lib_a-fvwrite.o)
 .data          0x00816450        0x0 c:/altera/12.1sp1/nios2eds/bin/gnu/h-i686-mingw32/bin/../lib/gcc/nios2-elf/4.1.2/../../../../nios2-elf/lib\libc.a(lib_a-fwalk.o)
 .data          0x00816450      0x400 c:/altera/12.1sp1/nios2eds/bin/gnu/h-i686-mingw32/bin/../lib/gcc/nios2-elf/4.1.2/../../../../nios2-elf/lib\libc.a(lib_a-impure.o)
 .data          0x00816850        0xc c:/altera/12.1sp1/nios2eds/bin/gnu/h-i686-mingw32/bin/../lib/gcc/nios2-elf/4.1.2/../../../../nios2-elf/lib\libc.a(lib_a-locale.o)
                0x00816850                __lc_ctype
 .data          0x0081685c        0x0 c:/altera/12.1sp1/nios2eds/bin/gnu/h-i686-mingw32/bin/../lib/gcc/nios2-elf/4.1.2/../../../../nios2-elf/lib\libc.a(lib_a-makebuf.o)
 .data          0x0081685c      0x408 c:/altera/12.1sp1/nios2eds/bin/gnu/h-i686-mingw32/bin/../lib/gcc/nios2-elf/4.1.2/../../../../nios2-elf/lib\libc.a(lib_a-mallocr.o)
                0x0081685c                __malloc_av_
 .data          0x00816c64        0x0 c:/altera/12.1sp1/nios2eds/bin/gnu/h-i686-mingw32/bin/../lib/gcc/nios2-elf/4.1.2/../../../../nios2-elf/lib\libc.a(lib_a-memchr.o)
 .data          0x00816c64        0x0 c:/altera/12.1sp1/nios2eds/bin/gnu/h-i686-mingw32/bin/../lib/gcc/nios2-elf/4.1.2/../../../../nios2-elf/lib\libc.a(lib_a-memcpy.o)
 .data          0x00816c64        0x0 c:/altera/12.1sp1/nios2eds/bin/gnu/h-i686-mingw32/bin/../lib/gcc/nios2-elf/4.1.2/../../../../nios2-elf/lib\libc.a(lib_a-memmove.o)
 .data          0x00816c64        0x0 c:/altera/12.1sp1/nios2eds/bin/gnu/h-i686-mingw32/bin/../lib/gcc/nios2-elf/4.1.2/../../../../nios2-elf/lib\libc.a(lib_a-memset.o)
 .data          0x00816c64        0x0 c:/altera/12.1sp1/nios2eds/bin/gnu/h-i686-mingw32/bin/../lib/gcc/nios2-elf/4.1.2/../../../../nios2-elf/lib\libc.a(lib_a-mprec.o)
 .data          0x00816c64        0x0 c:/altera/12.1sp1/nios2eds/bin/gnu/h-i686-mingw32/bin/../lib/gcc/nios2-elf/4.1.2/../../../../nios2-elf/lib\libc.a(lib_a-putc.o)
 .data          0x00816c64        0x0 c:/altera/12.1sp1/nios2eds/bin/gnu/h-i686-mingw32/bin/../lib/gcc/nios2-elf/4.1.2/../../../../nios2-elf/lib\libc.a(lib_a-reallocr.o)
 .data          0x00816c64        0x0 c:/altera/12.1sp1/nios2eds/bin/gnu/h-i686-mingw32/bin/../lib/gcc/nios2-elf/4.1.2/../../../../nios2-elf/lib\libc.a(lib_a-s_isinfd.o)
 .data          0x00816c64        0x0 c:/altera/12.1sp1/nios2eds/bin/gnu/h-i686-mingw32/bin/../lib/gcc/nios2-elf/4.1.2/../../../../nios2-elf/lib\libc.a(lib_a-s_isnand.o)
 .data          0x00816c64        0x0 c:/altera/12.1sp1/nios2eds/bin/gnu/h-i686-mingw32/bin/../lib/gcc/nios2-elf/4.1.2/../../../../nios2-elf/lib\libc.a(lib_a-sbrkr.o)
 .data          0x00816c64        0x0 c:/altera/12.1sp1/nios2eds/bin/gnu/h-i686-mingw32/bin/../lib/gcc/nios2-elf/4.1.2/../../../../nios2-elf/lib\libc.a(lib_a-stdio.o)
 .data          0x00816c64        0x0 c:/altera/12.1sp1/nios2eds/bin/gnu/h-i686-mingw32/bin/../lib/gcc/nios2-elf/4.1.2/../../../../nios2-elf/lib\libc.a(lib_a-strcmp.o)
 .data          0x00816c64        0x0 c:/altera/12.1sp1/nios2eds/bin/gnu/h-i686-mingw32/bin/../lib/gcc/nios2-elf/4.1.2/../../../../nios2-elf/lib\libc.a(lib_a-strlen.o)
 .data          0x00816c64        0x0 c:/altera/12.1sp1/nios2eds/bin/gnu/h-i686-mingw32/bin/../lib/gcc/nios2-elf/4.1.2/../../../../nios2-elf/lib\libc.a(lib_a-wbuf.o)
 .data          0x00816c64        0x0 c:/altera/12.1sp1/nios2eds/bin/gnu/h-i686-mingw32/bin/../lib/gcc/nios2-elf/4.1.2/../../../../nios2-elf/lib\libc.a(lib_a-writer.o)
 .data          0x00816c64        0x0 c:/altera/12.1sp1/nios2eds/bin/gnu/h-i686-mingw32/bin/../lib/gcc/nios2-elf/4.1.2/../../../../nios2-elf/lib\libc.a(lib_a-callocr.o)
 .data          0x00816c64        0x0 c:/altera/12.1sp1/nios2eds/bin/gnu/h-i686-mingw32/bin/../lib/gcc/nios2-elf/4.1.2/../../../../nios2-elf/lib\libc.a(lib_a-closer.o)
 .data          0x00816c64        0x0 c:/altera/12.1sp1/nios2eds/bin/gnu/h-i686-mingw32/bin/../lib/gcc/nios2-elf/4.1.2/../../../../nios2-elf/lib\libc.a(lib_a-fclose.o)
 .data          0x00816c64        0x0 c:/altera/12.1sp1/nios2eds/bin/gnu/h-i686-mingw32/bin/../lib/gcc/nios2-elf/4.1.2/../../../../nios2-elf/lib\libc.a(lib_a-fstatr.o)
 .data          0x00816c64        0x0 c:/altera/12.1sp1/nios2eds/bin/gnu/h-i686-mingw32/bin/../lib/gcc/nios2-elf/4.1.2/../../../../nios2-elf/lib\libc.a(lib_a-int_errno.o)
 .data          0x00816c64        0x0 c:/altera/12.1sp1/nios2eds/bin/gnu/h-i686-mingw32/bin/../lib/gcc/nios2-elf/4.1.2/../../../../nios2-elf/lib\libc.a(lib_a-isattyr.o)
 .data          0x00816c64        0x0 c:/altera/12.1sp1/nios2eds/bin/gnu/h-i686-mingw32/bin/../lib/gcc/nios2-elf/4.1.2/../../../../nios2-elf/lib\libc.a(lib_a-lseekr.o)
 .data          0x00816c64        0x0 c:/altera/12.1sp1/nios2eds/bin/gnu/h-i686-mingw32/bin/../lib/gcc/nios2-elf/4.1.2/../../../../nios2-elf/lib\libc.a(lib_a-readr.o)
 .data          0x00816c64        0x0 c:/altera/12.1sp1/nios2eds/bin/gnu/h-i686-mingw32/bin/../lib/gcc/nios2-elf/4.1.2\libgcc.a(_udivdi3.o)
 .data          0x00816c64        0x0 c:/altera/12.1sp1/nios2eds/bin/gnu/h-i686-mingw32/bin/../lib/gcc/nios2-elf/4.1.2\libgcc.a(_umoddi3.o)
 .data          0x00816c64        0x0 c:/altera/12.1sp1/nios2eds/bin/gnu/h-i686-mingw32/bin/../lib/gcc/nios2-elf/4.1.2\libgcc.a(_addsub_df.o)
 .data          0x00816c64        0x0 c:/altera/12.1sp1/nios2eds/bin/gnu/h-i686-mingw32/bin/../lib/gcc/nios2-elf/4.1.2\libgcc.a(_mul_df.o)
 .data          0x00816c64        0x0 c:/altera/12.1sp1/nios2eds/bin/gnu/h-i686-mingw32/bin/../lib/gcc/nios2-elf/4.1.2\libgcc.a(_div_df.o)
 .data          0x00816c64        0x0 c:/altera/12.1sp1/nios2eds/bin/gnu/h-i686-mingw32/bin/../lib/gcc/nios2-elf/4.1.2\libgcc.a(_eq_df.o)
 .data          0x00816c64        0x0 c:/altera/12.1sp1/nios2eds/bin/gnu/h-i686-mingw32/bin/../lib/gcc/nios2-elf/4.1.2\libgcc.a(_ne_df.o)
 .data          0x00816c64        0x0 c:/altera/12.1sp1/nios2eds/bin/gnu/h-i686-mingw32/bin/../lib/gcc/nios2-elf/4.1.2\libgcc.a(_gt_df.o)
 .data          0x00816c64        0x0 c:/altera/12.1sp1/nios2eds/bin/gnu/h-i686-mingw32/bin/../lib/gcc/nios2-elf/4.1.2\libgcc.a(_ge_df.o)
 .data          0x00816c64        0x0 c:/altera/12.1sp1/nios2eds/bin/gnu/h-i686-mingw32/bin/../lib/gcc/nios2-elf/4.1.2\libgcc.a(_lt_df.o)
 .data          0x00816c64        0x0 c:/altera/12.1sp1/nios2eds/bin/gnu/h-i686-mingw32/bin/../lib/gcc/nios2-elf/4.1.2\libgcc.a(_si_to_df.o)
 .data          0x00816c64        0x0 c:/altera/12.1sp1/nios2eds/bin/gnu/h-i686-mingw32/bin/../lib/gcc/nios2-elf/4.1.2\libgcc.a(_df_to_si.o)
 .data          0x00816c64        0x0 c:/altera/12.1sp1/nios2eds/bin/gnu/h-i686-mingw32/bin/../lib/gcc/nios2-elf/4.1.2\libgcc.a(_thenan_df.o)
 .data          0x00816c64        0x0 c:/altera/12.1sp1/nios2eds/bin/gnu/h-i686-mingw32/bin/../lib/gcc/nios2-elf/4.1.2\libgcc.a(_usi_to_df.o)
 .data          0x00816c64        0x0 c:/altera/12.1sp1/nios2eds/bin/gnu/h-i686-mingw32/bin/../lib/gcc/nios2-elf/4.1.2\libgcc.a(_muldi3.o)
 .data          0x00816c64        0x0 c:/altera/12.1sp1/nios2eds/bin/gnu/h-i686-mingw32/bin/../lib/gcc/nios2-elf/4.1.2\libgcc.a(_clz.o)
 .data          0x00816c64        0x0 c:/altera/12.1sp1/nios2eds/bin/gnu/h-i686-mingw32/bin/../lib/gcc/nios2-elf/4.1.2\libgcc.a(_clzsi2.o)
 .data          0x00816c64        0x0 c:/altera/12.1sp1/nios2eds/bin/gnu/h-i686-mingw32/bin/../lib/gcc/nios2-elf/4.1.2\libgcc.a(_pack_df.o)
 .data          0x00816c64        0x0 c:/altera/12.1sp1/nios2eds/bin/gnu/h-i686-mingw32/bin/../lib/gcc/nios2-elf/4.1.2\libgcc.a(_unpack_df.o)
 .data          0x00816c64        0x0 c:/altera/12.1sp1/nios2eds/bin/gnu/h-i686-mingw32/bin/../lib/gcc/nios2-elf/4.1.2\libgcc.a(_fpcmp_parts_df.o)
 .data          0x00816c64        0x0 ../SynthUnitTest_bsp/\libucosii_bsp.a(alt_close.o)
 .data          0x00816c64      0x1a8 ../SynthUnitTest_bsp/\libucosii_bsp.a(alt_dev.o)
                0x00816c64                alt_dev_null
                0x00816c8c                alt_fd_list
 .data          0x00816e0c        0x0 ../SynthUnitTest_bsp/\libucosii_bsp.a(alt_errno.o)
 .data          0x00816e0c        0x0 ../SynthUnitTest_bsp/\libucosii_bsp.a(alt_fstat.o)
 .data          0x00816e0c        0x0 ../SynthUnitTest_bsp/\libucosii_bsp.a(alt_isatty.o)
 .data          0x00816e0c        0x0 ../SynthUnitTest_bsp/\libucosii_bsp.a(alt_load.o)
 .data          0x00816e0c        0x0 ../SynthUnitTest_bsp/\libucosii_bsp.a(alt_lseek.o)
 .data          0x00816e0c        0x0 ../SynthUnitTest_bsp/\libucosii_bsp.a(alt_main.o)
 .data          0x00816e0c        0x0 ../SynthUnitTest_bsp/\libucosii_bsp.a(alt_read.o)
 .data          0x00816e0c        0x0 ../SynthUnitTest_bsp/\libucosii_bsp.a(alt_release_fd.o)
 .data          0x00816e0c        0x0 ../SynthUnitTest_bsp/\libucosii_bsp.a(alt_sbrk.o)
 .data          0x00816e0c        0x0 ../SynthUnitTest_bsp/\libucosii_bsp.a(alt_write.o)
 .data          0x00816e0c        0x0 ../SynthUnitTest_bsp/\libucosii_bsp.a(alt_env_lock.o)
 .data          0x00816e0c        0x0 ../SynthUnitTest_bsp/\libucosii_bsp.a(alt_malloc_lock.o)
 .data          0x00816e0c        0x0 ../SynthUnitTest_bsp/\libucosii_bsp.a(os_core.o)
 .data          0x00816e0c        0x0 ../SynthUnitTest_bsp/\libucosii_bsp.a(os_dbg.o)
 .data          0x00816e0c        0x0 ../SynthUnitTest_bsp/\libucosii_bsp.a(os_flag.o)
 .data          0x00816e0c        0x0 ../SynthUnitTest_bsp/\libucosii_bsp.a(os_mem.o)
 .data          0x00816e0c        0x0 ../SynthUnitTest_bsp/\libucosii_bsp.a(os_q.o)
 .data          0x00816e0c        0x0 ../SynthUnitTest_bsp/\libucosii_bsp.a(os_sem.o)
 .data          0x00816e0c        0x0 ../SynthUnitTest_bsp/\libucosii_bsp.a(os_task.o)
 .data          0x00816e0c        0x0 ../SynthUnitTest_bsp/\libucosii_bsp.a(os_time.o)
 .data          0x00816e0c     0x1098 ../SynthUnitTest_bsp/\libucosii_bsp.a(alt_sys_init.o)
 .data          0x00817ea4        0x0 ../SynthUnitTest_bsp/\libucosii_bsp.a(altera_avalon_fifo_util.o)
 .data          0x00817ea4        0x0 ../SynthUnitTest_bsp/\libucosii_bsp.a(altera_avalon_jtag_uart_fd.o)
 .data          0x00817ea4        0x0 ../SynthUnitTest_bsp/\libucosii_bsp.a(altera_avalon_jtag_uart_init.o)
 .data          0x00817ea4        0x0 ../SynthUnitTest_bsp/\libucosii_bsp.a(altera_avalon_jtag_uart_ioctl.o)
 .data          0x00817ea4        0x0 ../SynthUnitTest_bsp/\libucosii_bsp.a(altera_avalon_jtag_uart_read.o)
 .data          0x00817ea4        0x0 ../SynthUnitTest_bsp/\libucosii_bsp.a(altera_avalon_jtag_uart_write.o)
 .data          0x00817ea4        0x0 ../SynthUnitTest_bsp/\libucosii_bsp.a(altera_avalon_timer_sc.o)
 .data          0x00817ea4        0x0 ../SynthUnitTest_bsp/\libucosii_bsp.a(altera_up_avalon_character_lcd.o)
 .data          0x00817ea4        0x0 ../SynthUnitTest_bsp/\libucosii_bsp.a(alt_alarm_start.o)
 .data          0x00817ea4        0x0 ../SynthUnitTest_bsp/\libucosii_bsp.a(alt_dcache_flush_all.o)
 .data          0x00817ea4        0x0 ../SynthUnitTest_bsp/\libucosii_bsp.a(alt_dev_llist_insert.o)
 .data          0x00817ea4        0x0 ../SynthUnitTest_bsp/\libucosii_bsp.a(alt_do_ctors.o)
 .data          0x00817ea4        0x0 ../SynthUnitTest_bsp/\libucosii_bsp.a(alt_do_dtors.o)
 .data          0x00817ea4        0x0 ../SynthUnitTest_bsp/\libucosii_bsp.a(alt_find_dev.o)
 .data          0x00817ea4        0x0 ../SynthUnitTest_bsp/\libucosii_bsp.a(alt_icache_flush_all.o)
 .data          0x00817ea4        0x0 ../SynthUnitTest_bsp/\libucosii_bsp.a(alt_iic.o)
 .data          0x00817ea4        0x0 ../SynthUnitTest_bsp/\libucosii_bsp.a(alt_iic_isr_register.o)
 .data          0x00817ea4        0x0 ../SynthUnitTest_bsp/\libucosii_bsp.a(alt_io_redirect.o)
 .data          0x00817ea4        0x0 ../SynthUnitTest_bsp/\libucosii_bsp.a(alt_irq_entry.o)
 .data          0x00817ea4        0x0 ../SynthUnitTest_bsp/\libucosii_bsp.a(alt_irq_handler.o)
 .data          0x00817ea4        0x0 ../SynthUnitTest_bsp/\libucosii_bsp.a(alt_irq_vars.o)
 .data          0x00817ea4        0x0 ../SynthUnitTest_bsp/\libucosii_bsp.a(alt_open.o)
 .data          0x00817ea4        0x0 ../SynthUnitTest_bsp/\libucosii_bsp.a(alt_tick.o)
 .data          0x00817ea4        0x0 ../SynthUnitTest_bsp/\libucosii_bsp.a(altera_nios2_qsys_irq.o)
 .data          0x00817ea4        0x0 ../SynthUnitTest_bsp/\libucosii_bsp.a(os_cpu_a.o)
 .data          0x00817ea4        0x0 ../SynthUnitTest_bsp/\libucosii_bsp.a(os_cpu_c.o)
 .data          0x00817ea4        0x0 ../SynthUnitTest_bsp/\libucosii_bsp.a(alt_exception_entry.o)
 .data          0x00817ea4        0x0 ../SynthUnitTest_bsp/\libucosii_bsp.a(alt_find_file.o)
 .data          0x00817ea4        0x0 ../SynthUnitTest_bsp/\libucosii_bsp.a(alt_get_fd.o)
 .data          0x00817ea4        0x0 ../SynthUnitTest_bsp/\libucosii_bsp.a(alt_icache_flush.o)
 .data          0x00817ea4        0x0 c:/altera/12.1sp1/nios2eds/bin/gnu/h-i686-mingw32/bin/../lib/gcc/nios2-elf/4.1.2/../../../../nios2-elf/lib\libc.a(lib_a-atexit.o)
 .data          0x00817ea4        0x0 c:/altera/12.1sp1/nios2eds/bin/gnu/h-i686-mingw32/bin/../lib/gcc/nios2-elf/4.1.2/../../../../nios2-elf/lib\libc.a(lib_a-exit.o)
 .data          0x00817ea4        0x0 c:/altera/12.1sp1/nios2eds/bin/gnu/h-i686-mingw32/bin/../lib/gcc/nios2-elf/4.1.2/../../../../nios2-elf/lib\libc.a(lib_a-memcmp.o)
 .data          0x00817ea4        0x0 c:/altera/12.1sp1/nios2eds/bin/gnu/h-i686-mingw32/bin/../lib/gcc/nios2-elf/4.1.2/../../../../nios2-elf/lib\libc.a(lib_a-__atexit.o)
 .data          0x00817ea4        0x0 c:/altera/12.1sp1/nios2eds/bin/gnu/h-i686-mingw32/bin/../lib/gcc/nios2-elf/4.1.2/../../../../nios2-elf/lib\libc.a(lib_a-__call_atexit.o)
 .data          0x00817ea4        0x0 ../SynthUnitTest_bsp/\libucosii_bsp.a(alt_exit.o)
                0x0081fea4                _gp = ABSOLUTE ((. + 0x8000))
                0x0081fea4                PROVIDE (gp, _gp)
 *(.rwdata .rwdata.*)
 *(.sdata .sdata.* .gnu.linkonce.s.*)
 .sdata         0x00817ea4        0x8 c:/altera/12.1sp1/nios2eds/bin/gnu/h-i686-mingw32/bin/../lib/gcc/nios2-elf/4.1.2/../../../../nios2-elf/lib\libc.a(lib_a-impure.o)
                0x00817ea4                _impure_ptr
                0x00817ea8                _global_impure_ptr
 .sdata         0x00817eac        0x8 c:/altera/12.1sp1/nios2eds/bin/gnu/h-i686-mingw32/bin/../lib/gcc/nios2-elf/4.1.2/../../../../nios2-elf/lib\libc.a(lib_a-locale.o)
                0x00817eac                __mb_cur_max
 .sdata         0x00817eb4        0x8 c:/altera/12.1sp1/nios2eds/bin/gnu/h-i686-mingw32/bin/../lib/gcc/nios2-elf/4.1.2/../../../../nios2-elf/lib\libc.a(lib_a-mallocr.o)
                0x00817eb4                __malloc_trim_threshold
                0x00817eb8                __malloc_sbrk_base
 .sdata         0x00817ebc       0x14 ../SynthUnitTest_bsp/\libucosii_bsp.a(alt_dev.o)
                0x00817ebc                alt_fs_list
                0x00817ec4                alt_dev_list
                0x00817ecc                alt_max_fd
 .sdata         0x00817ed0        0x4 ../SynthUnitTest_bsp/\libucosii_bsp.a(alt_errno.o)
                0x00817ed0                alt_errno
 .sdata         0x00817ed4        0x4 ../SynthUnitTest_bsp/\libucosii_bsp.a(alt_sbrk.o)
 .sdata         0x00817ed8        0x4 ../SynthUnitTest_bsp/\libucosii_bsp.a(alt_env_lock.o)
 .sdata         0x00817edc        0x4 ../SynthUnitTest_bsp/\libucosii_bsp.a(alt_malloc_lock.o)
 .sdata         0x00817ee0       0x74 ../SynthUnitTest_bsp/\libucosii_bsp.a(os_dbg.o)
                0x00817ee0                OSDebugEn
                0x00817ee4                OSEndiannessTest
                0x00817ee8                OSEventEn
                0x00817eea                OSEventMax
                0x00817eec                OSEventNameSize
                0x00817eee                OSEventSize
                0x00817ef0                OSEventTblSize
                0x00817ef2                OSEventMultiEn
                0x00817ef4                OSFlagEn
                0x00817ef6                OSFlagGrpSize
                0x00817ef8                OSFlagNodeSize
                0x00817efa                OSFlagWidth
                0x00817efc                OSFlagMax
                0x00817efe                OSFlagNameSize
                0x00817f00                OSLowestPrio
                0x00817f02                OSMboxEn
                0x00817f04                OSMemEn
                0x00817f06                OSMemMax
                0x00817f08                OSMemNameSize
                0x00817f0a                OSMemSize
                0x00817f0c                OSMemTblSize
                0x00817f0e                OSMutexEn
                0x00817f10                OSPtrSize
                0x00817f12                OSQEn
                0x00817f14                OSQMax
                0x00817f16                OSQSize
                0x00817f18                OSRdyTblSize
                0x00817f1a                OSSemEn
                0x00817f1c                OSStkWidth
                0x00817f1e                OSTaskCreateEn
                0x00817f20                OSTaskCreateExtEn
                0x00817f22                OSTaskDelEn
                0x00817f24                OSTaskIdleStkSize
                0x00817f26                OSTaskProfileEn
                0x00817f28                OSTaskMax
                0x00817f2a                OSTaskNameSize
                0x00817f2c                OSTaskStatEn
                0x00817f2e                OSTaskStatStkSize
                0x00817f30                OSTaskStatStkChkEn
                0x00817f32                OSTaskSwHookEn
                0x00817f34                OSTCBPrioTblMax
                0x00817f36                OSTCBSize
                0x00817f38                OSTicksPerSec
                0x00817f3a                OSTimeTickHookEn
                0x00817f3c                OSVersionNbr
                0x00817f3e                OSTmrEn
                0x00817f40                OSTmrCfgMax
                0x00817f42                OSTmrCfgNameSize
                0x00817f44                OSTmrCfgWheelSize
                0x00817f46                OSTmrCfgTicksPerSec
                0x00817f48                OSTmrSize
                0x00817f4a                OSTmrTblSize
                0x00817f4c                OSTmrWheelSize
                0x00817f4e                OSTmrWheelTblSize
                0x00817f50                OSDataSize
 .sdata         0x00817f54        0x4 ../SynthUnitTest_bsp/\libucosii_bsp.a(alt_irq_vars.o)
                0x00817f54                alt_priority_mask
 .sdata         0x00817f58        0x8 ../SynthUnitTest_bsp/\libucosii_bsp.a(alt_tick.o)
                0x00817f58                alt_alarm_list
 *(.sdata2 .sdata2.* .gnu.linkonce.s2.*)
                0x00817f60                . = ALIGN (0x4)
                0x00817f60                _edata = ABSOLUTE (.)
                0x00817f60                PROVIDE (edata, ABSOLUTE (.))
                0x00817f60                PROVIDE (__ram_rwdata_end, ABSOLUTE (.))
                0x00817f60                PROVIDE (__flash_rwdata_start, LOADADDR (.rwdata))

.bss            0x00819a70     0x5574
                0x00819a70                __bss_start = ABSOLUTE (.)
                0x00819a70                PROVIDE (__sbss_start, ABSOLUTE (.))
                0x00819a70                PROVIDE (___sbss_start, ABSOLUTE (.))
 *(.dynsbss)
 *(.sbss .sbss.* .gnu.linkonce.sb.*)
 .sbss          0x00819a70        0xc c:/altera/12.1sp1/nios2eds/bin/gnu/h-i686-mingw32/bin/../lib/gcc/nios2-elf/4.1.2/../../../../nios2-elf/lib\libc.a(lib_a-locale.o)
                0x00819a70                __nlocale_changed
                0x00819a74                __mlocale_changed
                0x00819a78                _PathLocale
 .sbss          0x00819a7c        0xc c:/altera/12.1sp1/nios2eds/bin/gnu/h-i686-mingw32/bin/../lib/gcc/nios2-elf/4.1.2/../../../../nios2-elf/lib\libc.a(lib_a-mallocr.o)
                0x00819a7c                __malloc_top_pad
                0x00819a80                __malloc_max_sbrked_mem
                0x00819a84                __malloc_max_total_mem
 .sbss          0x00819a88        0x4 c:/altera/12.1sp1/nios2eds/bin/gnu/h-i686-mingw32/bin/../lib/gcc/nios2-elf/4.1.2/../../../../nios2-elf/lib\libc.a(lib_a-int_errno.o)
                0x00819a88                errno
 .sbss          0x00819a8c        0x4 ../SynthUnitTest_bsp/\libucosii_bsp.a(alt_dev.o)
                0x00819a8c                alt_fd_list_lock
 .sbss          0x00819a90        0xc ../SynthUnitTest_bsp/\libucosii_bsp.a(alt_main.o)
                0x00819a90                alt_argc
                0x00819a94                alt_argv
                0x00819a98                alt_envp
 .sbss          0x00819a9c        0x8 ../SynthUnitTest_bsp/\libucosii_bsp.a(alt_env_lock.o)
                0x00819aa0                alt_envsem
 .sbss          0x00819aa4        0x8 ../SynthUnitTest_bsp/\libucosii_bsp.a(alt_malloc_lock.o)
                0x00819aa8                alt_heapsem
 .sbss          0x00819aac       0x50 ../SynthUnitTest_bsp/\libucosii_bsp.a(os_core.o)
                0x00819aac                OSLockNesting
                0x00819aad                OSRunning
                0x00819ab0                OSIdleCtr
                0x00819ab4                OSPrioHighRdy
                0x00819ab5                OSPrioCur
                0x00819ab8                OSTCBList
                0x00819abc                OSTickStepState
                0x00819ac0                OSCtxSwCtr
                0x00819ac4                OSIdleCtrMax
                0x00819ac8                OSTCBFreeList
                0x00819acc                OSCPUUsage
                0x00819acd                OSTaskCtr
                0x00819ad0                OSMemFreeList
                0x00819ad4                OSTCBHighRdy
                0x00819ad8                OSQFreeList
                0x00819adc                OSRdyGrp
                0x00819add                OSRdyTbl
                0x00819ae0                OSEventFreeList
                0x00819ae4                OSIntNesting
                0x00819ae8                OSTCBCur
                0x00819aec                OSTime
                0x00819af0                OSFlagFreeList
                0x00819af4                OSStatRdy
                0x00819af8                OSIdleCtrRun
 .sbss          0x00819afc        0x4 ../SynthUnitTest_bsp/\libucosii_bsp.a(alt_irq_vars.o)
                0x00819afc                alt_irq_active
 .sbss          0x00819b00        0x8 ../SynthUnitTest_bsp/\libucosii_bsp.a(alt_tick.o)
                0x00819b00                _alt_tick_rate
                0x00819b04                _alt_nticks
 *(.sbss2 .sbss2.* .gnu.linkonce.sb2.*)
 *(.scommon)
                0x00819b08                PROVIDE (__sbss_end, ABSOLUTE (.))
                0x00819b08                PROVIDE (___sbss_end, ABSOLUTE (.))
 *(.dynbss)
 *(.bss .bss.* .gnu.linkonce.b.*)
 .bss           0x00819b08        0x0 ../SynthUnitTest_bsp//obj/HAL/src/crt0.o
 .bss           0x00819b08        0x0 obj/default/hello_ucosii.o
 .bss           0x00819b08        0x0 c:/altera/12.1sp1/nios2eds/bin/gnu/h-i686-mingw32/bin/../lib/gcc/nios2-elf/4.1.2\libgcc.a(lib2-divmod.o)
 .bss           0x00819b08        0x0 c:/altera/12.1sp1/nios2eds/bin/gnu/h-i686-mingw32/bin/../lib/gcc/nios2-elf/4.1.2/../../../../nios2-elf/lib\libc.a(lib_a-printf.o)
 .bss           0x00819b08        0x0 c:/altera/12.1sp1/nios2eds/bin/gnu/h-i686-mingw32/bin/../lib/gcc/nios2-elf/4.1.2/../../../../nios2-elf/lib\libc.a(lib_a-putchar.o)
 .bss           0x00819b08        0x0 c:/altera/12.1sp1/nios2eds/bin/gnu/h-i686-mingw32/bin/../lib/gcc/nios2-elf/4.1.2/../../../../nios2-elf/lib\libc.a(lib_a-vfprintf.o)
 .bss           0x00819b08        0x0 c:/altera/12.1sp1/nios2eds/bin/gnu/h-i686-mingw32/bin/../lib/gcc/nios2-elf/4.1.2/../../../../nios2-elf/lib\libc.a(lib_a-wsetup.o)
 .bss           0x00819b08        0x0 c:/altera/12.1sp1/nios2eds/bin/gnu/h-i686-mingw32/bin/../lib/gcc/nios2-elf/4.1.2/../../../../nios2-elf/lib\libc.a(lib_a-dtoa.o)
 .bss           0x00819b08        0x0 c:/altera/12.1sp1/nios2eds/bin/gnu/h-i686-mingw32/bin/../lib/gcc/nios2-elf/4.1.2/../../../../nios2-elf/lib\libc.a(lib_a-fflush.o)
 .bss           0x00819b08        0x0 c:/altera/12.1sp1/nios2eds/bin/gnu/h-i686-mingw32/bin/../lib/gcc/nios2-elf/4.1.2/../../../../nios2-elf/lib\libc.a(lib_a-findfp.o)
 .bss           0x00819b08        0x0 c:/altera/12.1sp1/nios2eds/bin/gnu/h-i686-mingw32/bin/../lib/gcc/nios2-elf/4.1.2/../../../../nios2-elf/lib\libc.a(lib_a-freer.o)
 .bss           0x00819b08        0x0 c:/altera/12.1sp1/nios2eds/bin/gnu/h-i686-mingw32/bin/../lib/gcc/nios2-elf/4.1.2/../../../../nios2-elf/lib\libc.a(lib_a-fvwrite.o)
 .bss           0x00819b08        0x0 c:/altera/12.1sp1/nios2eds/bin/gnu/h-i686-mingw32/bin/../lib/gcc/nios2-elf/4.1.2/../../../../nios2-elf/lib\libc.a(lib_a-fwalk.o)
 .bss           0x00819b08        0x0 c:/altera/12.1sp1/nios2eds/bin/gnu/h-i686-mingw32/bin/../lib/gcc/nios2-elf/4.1.2/../../../../nios2-elf/lib\libc.a(lib_a-impure.o)
 .bss           0x00819b08        0x0 c:/altera/12.1sp1/nios2eds/bin/gnu/h-i686-mingw32/bin/../lib/gcc/nios2-elf/4.1.2/../../../../nios2-elf/lib\libc.a(lib_a-locale.o)
 .bss           0x00819b08        0x0 c:/altera/12.1sp1/nios2eds/bin/gnu/h-i686-mingw32/bin/../lib/gcc/nios2-elf/4.1.2/../../../../nios2-elf/lib\libc.a(lib_a-makebuf.o)
 .bss           0x00819b08       0x28 c:/altera/12.1sp1/nios2eds/bin/gnu/h-i686-mingw32/bin/../lib/gcc/nios2-elf/4.1.2/../../../../nios2-elf/lib\libc.a(lib_a-mallocr.o)
                0x00819b08                __malloc_current_mallinfo
 .bss           0x00819b30        0x0 c:/altera/12.1sp1/nios2eds/bin/gnu/h-i686-mingw32/bin/../lib/gcc/nios2-elf/4.1.2/../../../../nios2-elf/lib\libc.a(lib_a-memchr.o)
 .bss           0x00819b30        0x0 c:/altera/12.1sp1/nios2eds/bin/gnu/h-i686-mingw32/bin/../lib/gcc/nios2-elf/4.1.2/../../../../nios2-elf/lib\libc.a(lib_a-memcpy.o)
 .bss           0x00819b30        0x0 c:/altera/12.1sp1/nios2eds/bin/gnu/h-i686-mingw32/bin/../lib/gcc/nios2-elf/4.1.2/../../../../nios2-elf/lib\libc.a(lib_a-memmove.o)
 .bss           0x00819b30        0x0 c:/altera/12.1sp1/nios2eds/bin/gnu/h-i686-mingw32/bin/../lib/gcc/nios2-elf/4.1.2/../../../../nios2-elf/lib\libc.a(lib_a-memset.o)
 .bss           0x00819b30        0x0 c:/altera/12.1sp1/nios2eds/bin/gnu/h-i686-mingw32/bin/../lib/gcc/nios2-elf/4.1.2/../../../../nios2-elf/lib\libc.a(lib_a-mprec.o)
 .bss           0x00819b30        0x0 c:/altera/12.1sp1/nios2eds/bin/gnu/h-i686-mingw32/bin/../lib/gcc/nios2-elf/4.1.2/../../../../nios2-elf/lib\libc.a(lib_a-putc.o)
 .bss           0x00819b30        0x0 c:/altera/12.1sp1/nios2eds/bin/gnu/h-i686-mingw32/bin/../lib/gcc/nios2-elf/4.1.2/../../../../nios2-elf/lib\libc.a(lib_a-reallocr.o)
 .bss           0x00819b30        0x0 c:/altera/12.1sp1/nios2eds/bin/gnu/h-i686-mingw32/bin/../lib/gcc/nios2-elf/4.1.2/../../../../nios2-elf/lib\libc.a(lib_a-s_isinfd.o)
 .bss           0x00819b30        0x0 c:/altera/12.1sp1/nios2eds/bin/gnu/h-i686-mingw32/bin/../lib/gcc/nios2-elf/4.1.2/../../../../nios2-elf/lib\libc.a(lib_a-s_isnand.o)
 .bss           0x00819b30        0x0 c:/altera/12.1sp1/nios2eds/bin/gnu/h-i686-mingw32/bin/../lib/gcc/nios2-elf/4.1.2/../../../../nios2-elf/lib\libc.a(lib_a-sbrkr.o)
 .bss           0x00819b30        0x0 c:/altera/12.1sp1/nios2eds/bin/gnu/h-i686-mingw32/bin/../lib/gcc/nios2-elf/4.1.2/../../../../nios2-elf/lib\libc.a(lib_a-stdio.o)
 .bss           0x00819b30        0x0 c:/altera/12.1sp1/nios2eds/bin/gnu/h-i686-mingw32/bin/../lib/gcc/nios2-elf/4.1.2/../../../../nios2-elf/lib\libc.a(lib_a-strcmp.o)
 .bss           0x00819b30        0x0 c:/altera/12.1sp1/nios2eds/bin/gnu/h-i686-mingw32/bin/../lib/gcc/nios2-elf/4.1.2/../../../../nios2-elf/lib\libc.a(lib_a-strlen.o)
 .bss           0x00819b30        0x0 c:/altera/12.1sp1/nios2eds/bin/gnu/h-i686-mingw32/bin/../lib/gcc/nios2-elf/4.1.2/../../../../nios2-elf/lib\libc.a(lib_a-wbuf.o)
 .bss           0x00819b30        0x0 c:/altera/12.1sp1/nios2eds/bin/gnu/h-i686-mingw32/bin/../lib/gcc/nios2-elf/4.1.2/../../../../nios2-elf/lib\libc.a(lib_a-writer.o)
 .bss           0x00819b30        0x0 c:/altera/12.1sp1/nios2eds/bin/gnu/h-i686-mingw32/bin/../lib/gcc/nios2-elf/4.1.2/../../../../nios2-elf/lib\libc.a(lib_a-callocr.o)
 .bss           0x00819b30        0x0 c:/altera/12.1sp1/nios2eds/bin/gnu/h-i686-mingw32/bin/../lib/gcc/nios2-elf/4.1.2/../../../../nios2-elf/lib\libc.a(lib_a-closer.o)
 .bss           0x00819b30        0x0 c:/altera/12.1sp1/nios2eds/bin/gnu/h-i686-mingw32/bin/../lib/gcc/nios2-elf/4.1.2/../../../../nios2-elf/lib\libc.a(lib_a-fclose.o)
 .bss           0x00819b30        0x0 c:/altera/12.1sp1/nios2eds/bin/gnu/h-i686-mingw32/bin/../lib/gcc/nios2-elf/4.1.2/../../../../nios2-elf/lib\libc.a(lib_a-fstatr.o)
 .bss           0x00819b30        0x0 c:/altera/12.1sp1/nios2eds/bin/gnu/h-i686-mingw32/bin/../lib/gcc/nios2-elf/4.1.2/../../../../nios2-elf/lib\libc.a(lib_a-int_errno.o)
 .bss           0x00819b30        0x0 c:/altera/12.1sp1/nios2eds/bin/gnu/h-i686-mingw32/bin/../lib/gcc/nios2-elf/4.1.2/../../../../nios2-elf/lib\libc.a(lib_a-isattyr.o)
 .bss           0x00819b30        0x0 c:/altera/12.1sp1/nios2eds/bin/gnu/h-i686-mingw32/bin/../lib/gcc/nios2-elf/4.1.2/../../../../nios2-elf/lib\libc.a(lib_a-lseekr.o)
 .bss           0x00819b30        0x0 c:/altera/12.1sp1/nios2eds/bin/gnu/h-i686-mingw32/bin/../lib/gcc/nios2-elf/4.1.2/../../../../nios2-elf/lib\libc.a(lib_a-readr.o)
 .bss           0x00819b30        0x0 c:/altera/12.1sp1/nios2eds/bin/gnu/h-i686-mingw32/bin/../lib/gcc/nios2-elf/4.1.2\libgcc.a(_udivdi3.o)
 .bss           0x00819b30        0x0 c:/altera/12.1sp1/nios2eds/bin/gnu/h-i686-mingw32/bin/../lib/gcc/nios2-elf/4.1.2\libgcc.a(_umoddi3.o)
 .bss           0x00819b30        0x0 c:/altera/12.1sp1/nios2eds/bin/gnu/h-i686-mingw32/bin/../lib/gcc/nios2-elf/4.1.2\libgcc.a(_addsub_df.o)
 .bss           0x00819b30        0x0 c:/altera/12.1sp1/nios2eds/bin/gnu/h-i686-mingw32/bin/../lib/gcc/nios2-elf/4.1.2\libgcc.a(_mul_df.o)
 .bss           0x00819b30        0x0 c:/altera/12.1sp1/nios2eds/bin/gnu/h-i686-mingw32/bin/../lib/gcc/nios2-elf/4.1.2\libgcc.a(_div_df.o)
 .bss           0x00819b30        0x0 c:/altera/12.1sp1/nios2eds/bin/gnu/h-i686-mingw32/bin/../lib/gcc/nios2-elf/4.1.2\libgcc.a(_eq_df.o)
 .bss           0x00819b30        0x0 c:/altera/12.1sp1/nios2eds/bin/gnu/h-i686-mingw32/bin/../lib/gcc/nios2-elf/4.1.2\libgcc.a(_ne_df.o)
 .bss           0x00819b30        0x0 c:/altera/12.1sp1/nios2eds/bin/gnu/h-i686-mingw32/bin/../lib/gcc/nios2-elf/4.1.2\libgcc.a(_gt_df.o)
 .bss           0x00819b30        0x0 c:/altera/12.1sp1/nios2eds/bin/gnu/h-i686-mingw32/bin/../lib/gcc/nios2-elf/4.1.2\libgcc.a(_ge_df.o)
 .bss           0x00819b30        0x0 c:/altera/12.1sp1/nios2eds/bin/gnu/h-i686-mingw32/bin/../lib/gcc/nios2-elf/4.1.2\libgcc.a(_lt_df.o)
 .bss           0x00819b30        0x0 c:/altera/12.1sp1/nios2eds/bin/gnu/h-i686-mingw32/bin/../lib/gcc/nios2-elf/4.1.2\libgcc.a(_si_to_df.o)
 .bss           0x00819b30        0x0 c:/altera/12.1sp1/nios2eds/bin/gnu/h-i686-mingw32/bin/../lib/gcc/nios2-elf/4.1.2\libgcc.a(_df_to_si.o)
 .bss           0x00819b30        0x0 c:/altera/12.1sp1/nios2eds/bin/gnu/h-i686-mingw32/bin/../lib/gcc/nios2-elf/4.1.2\libgcc.a(_thenan_df.o)
 .bss           0x00819b30        0x0 c:/altera/12.1sp1/nios2eds/bin/gnu/h-i686-mingw32/bin/../lib/gcc/nios2-elf/4.1.2\libgcc.a(_usi_to_df.o)
 .bss           0x00819b30        0x0 c:/altera/12.1sp1/nios2eds/bin/gnu/h-i686-mingw32/bin/../lib/gcc/nios2-elf/4.1.2\libgcc.a(_muldi3.o)
 .bss           0x00819b30        0x0 c:/altera/12.1sp1/nios2eds/bin/gnu/h-i686-mingw32/bin/../lib/gcc/nios2-elf/4.1.2\libgcc.a(_clz.o)
 .bss           0x00819b30        0x0 c:/altera/12.1sp1/nios2eds/bin/gnu/h-i686-mingw32/bin/../lib/gcc/nios2-elf/4.1.2\libgcc.a(_clzsi2.o)
 .bss           0x00819b30        0x0 c:/altera/12.1sp1/nios2eds/bin/gnu/h-i686-mingw32/bin/../lib/gcc/nios2-elf/4.1.2\libgcc.a(_pack_df.o)
 .bss           0x00819b30        0x0 c:/altera/12.1sp1/nios2eds/bin/gnu/h-i686-mingw32/bin/../lib/gcc/nios2-elf/4.1.2\libgcc.a(_unpack_df.o)
 .bss           0x00819b30        0x0 c:/altera/12.1sp1/nios2eds/bin/gnu/h-i686-mingw32/bin/../lib/gcc/nios2-elf/4.1.2\libgcc.a(_fpcmp_parts_df.o)
 .bss           0x00819b30        0x0 ../SynthUnitTest_bsp/\libucosii_bsp.a(alt_close.o)
 .bss           0x00819b30        0x0 ../SynthUnitTest_bsp/\libucosii_bsp.a(alt_dev.o)
 .bss           0x00819b30        0x0 ../SynthUnitTest_bsp/\libucosii_bsp.a(alt_errno.o)
 .bss           0x00819b30        0x0 ../SynthUnitTest_bsp/\libucosii_bsp.a(alt_fstat.o)
 .bss           0x00819b30        0x0 ../SynthUnitTest_bsp/\libucosii_bsp.a(alt_isatty.o)
 .bss           0x00819b30        0x0 ../SynthUnitTest_bsp/\libucosii_bsp.a(alt_load.o)
 .bss           0x00819b30        0x0 ../SynthUnitTest_bsp/\libucosii_bsp.a(alt_lseek.o)
 .bss           0x00819b30        0x0 ../SynthUnitTest_bsp/\libucosii_bsp.a(alt_main.o)
 .bss           0x00819b30        0x0 ../SynthUnitTest_bsp/\libucosii_bsp.a(alt_read.o)
 .bss           0x00819b30        0x0 ../SynthUnitTest_bsp/\libucosii_bsp.a(alt_release_fd.o)
 .bss           0x00819b30        0x0 ../SynthUnitTest_bsp/\libucosii_bsp.a(alt_sbrk.o)
 .bss           0x00819b30        0x0 ../SynthUnitTest_bsp/\libucosii_bsp.a(alt_write.o)
 .bss           0x00819b30        0x0 ../SynthUnitTest_bsp/\libucosii_bsp.a(alt_env_lock.o)
 .bss           0x00819b30        0x0 ../SynthUnitTest_bsp/\libucosii_bsp.a(alt_malloc_lock.o)
 .bss           0x00819b30        0x0 ../SynthUnitTest_bsp/\libucosii_bsp.a(os_core.o)
 .bss           0x00819b30        0x0 ../SynthUnitTest_bsp/\libucosii_bsp.a(os_dbg.o)
 .bss           0x00819b30        0x0 ../SynthUnitTest_bsp/\libucosii_bsp.a(os_flag.o)
 .bss           0x00819b30        0x0 ../SynthUnitTest_bsp/\libucosii_bsp.a(os_mem.o)
 .bss           0x00819b30        0x0 ../SynthUnitTest_bsp/\libucosii_bsp.a(os_q.o)
 .bss           0x00819b30        0x0 ../SynthUnitTest_bsp/\libucosii_bsp.a(os_sem.o)
 .bss           0x00819b30        0x0 ../SynthUnitTest_bsp/\libucosii_bsp.a(os_task.o)
 .bss           0x00819b30        0x0 ../SynthUnitTest_bsp/\libucosii_bsp.a(os_time.o)
 .bss           0x00819b30        0x0 ../SynthUnitTest_bsp/\libucosii_bsp.a(alt_sys_init.o)
 .bss           0x00819b30        0x0 ../SynthUnitTest_bsp/\libucosii_bsp.a(altera_avalon_fifo_util.o)
 .bss           0x00819b30        0x0 ../SynthUnitTest_bsp/\libucosii_bsp.a(altera_avalon_jtag_uart_fd.o)
 .bss           0x00819b30        0x0 ../SynthUnitTest_bsp/\libucosii_bsp.a(altera_avalon_jtag_uart_init.o)
 .bss           0x00819b30        0x0 ../SynthUnitTest_bsp/\libucosii_bsp.a(altera_avalon_jtag_uart_ioctl.o)
 .bss           0x00819b30        0x0 ../SynthUnitTest_bsp/\libucosii_bsp.a(altera_avalon_jtag_uart_read.o)
 .bss           0x00819b30        0x0 ../SynthUnitTest_bsp/\libucosii_bsp.a(altera_avalon_jtag_uart_write.o)
 .bss           0x00819b30        0x0 ../SynthUnitTest_bsp/\libucosii_bsp.a(altera_avalon_timer_sc.o)
 .bss           0x00819b30        0x0 ../SynthUnitTest_bsp/\libucosii_bsp.a(altera_up_avalon_character_lcd.o)
 .bss           0x00819b30        0x0 ../SynthUnitTest_bsp/\libucosii_bsp.a(alt_alarm_start.o)
 .bss           0x00819b30        0x0 ../SynthUnitTest_bsp/\libucosii_bsp.a(alt_dcache_flush_all.o)
 .bss           0x00819b30        0x0 ../SynthUnitTest_bsp/\libucosii_bsp.a(alt_dev_llist_insert.o)
 .bss           0x00819b30        0x0 ../SynthUnitTest_bsp/\libucosii_bsp.a(alt_do_ctors.o)
 .bss           0x00819b30        0x0 ../SynthUnitTest_bsp/\libucosii_bsp.a(alt_do_dtors.o)
 .bss           0x00819b30        0x0 ../SynthUnitTest_bsp/\libucosii_bsp.a(alt_find_dev.o)
 .bss           0x00819b30        0x0 ../SynthUnitTest_bsp/\libucosii_bsp.a(alt_icache_flush_all.o)
 .bss           0x00819b30        0x0 ../SynthUnitTest_bsp/\libucosii_bsp.a(alt_iic.o)
 .bss           0x00819b30        0x0 ../SynthUnitTest_bsp/\libucosii_bsp.a(alt_iic_isr_register.o)
 .bss           0x00819b30        0x0 ../SynthUnitTest_bsp/\libucosii_bsp.a(alt_io_redirect.o)
 .bss           0x00819b30        0x0 ../SynthUnitTest_bsp/\libucosii_bsp.a(alt_irq_entry.o)
 .bss           0x00819b30        0x0 ../SynthUnitTest_bsp/\libucosii_bsp.a(alt_irq_handler.o)
 .bss           0x00819b30        0x0 ../SynthUnitTest_bsp/\libucosii_bsp.a(alt_irq_vars.o)
 .bss           0x00819b30        0x0 ../SynthUnitTest_bsp/\libucosii_bsp.a(alt_open.o)
 .bss           0x00819b30        0x0 ../SynthUnitTest_bsp/\libucosii_bsp.a(alt_tick.o)
 .bss           0x00819b30        0x0 ../SynthUnitTest_bsp/\libucosii_bsp.a(altera_nios2_qsys_irq.o)
 .bss           0x00819b30        0x0 ../SynthUnitTest_bsp/\libucosii_bsp.a(os_cpu_a.o)
 .bss           0x00819b30        0x0 ../SynthUnitTest_bsp/\libucosii_bsp.a(os_cpu_c.o)
 .bss           0x00819b30        0x0 ../SynthUnitTest_bsp/\libucosii_bsp.a(alt_exception_entry.o)
 .bss           0x00819b30        0x0 ../SynthUnitTest_bsp/\libucosii_bsp.a(alt_find_file.o)
 .bss           0x00819b30        0x0 ../SynthUnitTest_bsp/\libucosii_bsp.a(alt_get_fd.o)
 .bss           0x00819b30        0x0 ../SynthUnitTest_bsp/\libucosii_bsp.a(alt_icache_flush.o)
 .bss           0x00819b30        0x0 c:/altera/12.1sp1/nios2eds/bin/gnu/h-i686-mingw32/bin/../lib/gcc/nios2-elf/4.1.2/../../../../nios2-elf/lib\libc.a(lib_a-atexit.o)
 .bss           0x00819b30        0x0 c:/altera/12.1sp1/nios2eds/bin/gnu/h-i686-mingw32/bin/../lib/gcc/nios2-elf/4.1.2/../../../../nios2-elf/lib\libc.a(lib_a-exit.o)
 .bss           0x00819b30        0x0 c:/altera/12.1sp1/nios2eds/bin/gnu/h-i686-mingw32/bin/../lib/gcc/nios2-elf/4.1.2/../../../../nios2-elf/lib\libc.a(lib_a-memcmp.o)
 .bss           0x00819b30        0x0 c:/altera/12.1sp1/nios2eds/bin/gnu/h-i686-mingw32/bin/../lib/gcc/nios2-elf/4.1.2/../../../../nios2-elf/lib\libc.a(lib_a-__atexit.o)
 .bss           0x00819b30        0x0 c:/altera/12.1sp1/nios2eds/bin/gnu/h-i686-mingw32/bin/../lib/gcc/nios2-elf/4.1.2/../../../../nios2-elf/lib\libc.a(lib_a-__call_atexit.o)
 .bss           0x00819b30        0x0 ../SynthUnitTest_bsp/\libucosii_bsp.a(alt_exit.o)
 *(COMMON)
 COMMON         0x00819b30     0x2000 obj/default/hello_ucosii.o
                0x00819b30                task1_stk
 COMMON         0x0081bb30     0x3224 ../SynthUnitTest_bsp/\libucosii_bsp.a(os_core.o)
                0x0081bb30                OSFlagTbl
                0x0081bea0                OSMemTbl
                0x0081cad0                OSTaskStatStk
                0x0081d2d0                OSQTbl
                0x0081d4b0                OSTaskIdleStk
                0x0081dcb0                OSEventTbl
                0x0081e7f0                OSTCBTbl
                0x0081ed00                OSTCBPrioTbl
 COMMON         0x0081ed54      0x100 ../SynthUnitTest_bsp/\libucosii_bsp.a(alt_irq_handler.o)
                0x0081ed54                alt_irq
 COMMON         0x0081ee54      0x190 c:/altera/12.1sp1/nios2eds/bin/gnu/h-i686-mingw32/bin/../lib/gcc/nios2-elf/4.1.2/../../../../nios2-elf/lib\libc.a(lib_a-atexit.o)
                0x0081ee54                _atexit0
                0x0081efe4                . = ALIGN (0x4)
                0x0081efe4                __bss_end = ABSOLUTE (.)

.sdram_0        0x0081efe4        0x0
                0x0081efe4                PROVIDE (_alt_partition_sdram_0_start, ABSOLUTE (.))
 *(.sdram_0. sdram_0.*)
                0x0081efe4                . = ALIGN (0x4)
                0x0081efe4                PROVIDE (_alt_partition_sdram_0_end, ABSOLUTE (.))
                0x0081efe4                _end = ABSOLUTE (.)
                0x0081efe4                end = ABSOLUTE (.)
                0x0081efe4                __alt_stack_base = ABSOLUTE (.)
                0x0081efe4                PROVIDE (_alt_partition_sdram_0_load_addr, LOADADDR (.sdram_0))

.sram_0         0x01080000        0x0 load address 0x0081efe4
                0x01080000                PROVIDE (_alt_partition_sram_0_start, ABSOLUTE (.))
 *(.sram_0. sram_0.*)
                0x01080000                . = ALIGN (0x4)
                0x01080000                PROVIDE (_alt_partition_sram_0_end, ABSOLUTE (.))
                0x0081efe4                PROVIDE (_alt_partition_sram_0_load_addr, LOADADDR (.sram_0))

.onchip_memory2_0
                0x011041bc        0x0 load address 0x0081efe4
                0x011041bc                PROVIDE (_alt_partition_onchip_memory2_0_start, ABSOLUTE (.))
 *(.onchip_memory2_0. onchip_memory2_0.*)
                0x011041bc                . = ALIGN (0x4)
                0x011041bc                PROVIDE (_alt_partition_onchip_memory2_0_end, ABSOLUTE (.))
                0x0081efe4                PROVIDE (_alt_partition_onchip_memory2_0_load_addr, LOADADDR (.onchip_memory2_0))

.stab
 *(.stab)

.stabstr
 *(.stabstr)

.stab.excl
 *(.stab.excl)

.stab.exclstr
 *(.stab.exclstr)

.stab.index
 *(.stab.index)

.stab.indexstr
 *(.stab.indexstr)

.comment        0x00000000       0x26
 *(.comment)
 .comment       0x00000000       0x26 obj/default/hello_ucosii.o
                                 0x27 (size before relaxing)
 .comment       0x00000000       0x27 c:/altera/12.1sp1/nios2eds/bin/gnu/h-i686-mingw32/bin/../lib/gcc/nios2-elf/4.1.2\libgcc.a(lib2-divmod.o)
 .comment       0x00000000       0x27 c:/altera/12.1sp1/nios2eds/bin/gnu/h-i686-mingw32/bin/../lib/gcc/nios2-elf/4.1.2/../../../../nios2-elf/lib\libc.a(lib_a-printf.o)
 .comment       0x00000000       0x27 c:/altera/12.1sp1/nios2eds/bin/gnu/h-i686-mingw32/bin/../lib/gcc/nios2-elf/4.1.2/../../../../nios2-elf/lib\libc.a(lib_a-putchar.o)
 .comment       0x00000000       0x27 c:/altera/12.1sp1/nios2eds/bin/gnu/h-i686-mingw32/bin/../lib/gcc/nios2-elf/4.1.2/../../../../nios2-elf/lib\libc.a(lib_a-vfprintf.o)
 .comment       0x00000000       0x27 c:/altera/12.1sp1/nios2eds/bin/gnu/h-i686-mingw32/bin/../lib/gcc/nios2-elf/4.1.2/../../../../nios2-elf/lib\libc.a(lib_a-wsetup.o)
 .comment       0x00000000       0x27 c:/altera/12.1sp1/nios2eds/bin/gnu/h-i686-mingw32/bin/../lib/gcc/nios2-elf/4.1.2/../../../../nios2-elf/lib\libc.a(lib_a-dtoa.o)
 .comment       0x00000000       0x27 c:/altera/12.1sp1/nios2eds/bin/gnu/h-i686-mingw32/bin/../lib/gcc/nios2-elf/4.1.2/../../../../nios2-elf/lib\libc.a(lib_a-fflush.o)
 .comment       0x00000000       0x27 c:/altera/12.1sp1/nios2eds/bin/gnu/h-i686-mingw32/bin/../lib/gcc/nios2-elf/4.1.2/../../../../nios2-elf/lib\libc.a(lib_a-findfp.o)
 .comment       0x00000000       0x27 c:/altera/12.1sp1/nios2eds/bin/gnu/h-i686-mingw32/bin/../lib/gcc/nios2-elf/4.1.2/../../../../nios2-elf/lib\libc.a(lib_a-freer.o)
 .comment       0x00000000       0x27 c:/altera/12.1sp1/nios2eds/bin/gnu/h-i686-mingw32/bin/../lib/gcc/nios2-elf/4.1.2/../../../../nios2-elf/lib\libc.a(lib_a-fvwrite.o)
 .comment       0x00000000       0x27 c:/altera/12.1sp1/nios2eds/bin/gnu/h-i686-mingw32/bin/../lib/gcc/nios2-elf/4.1.2/../../../../nios2-elf/lib\libc.a(lib_a-fwalk.o)
 .comment       0x00000000       0x27 c:/altera/12.1sp1/nios2eds/bin/gnu/h-i686-mingw32/bin/../lib/gcc/nios2-elf/4.1.2/../../../../nios2-elf/lib\libc.a(lib_a-impure.o)
 .comment       0x00000000       0x27 c:/altera/12.1sp1/nios2eds/bin/gnu/h-i686-mingw32/bin/../lib/gcc/nios2-elf/4.1.2/../../../../nios2-elf/lib\libc.a(lib_a-locale.o)
 .comment       0x00000000       0x27 c:/altera/12.1sp1/nios2eds/bin/gnu/h-i686-mingw32/bin/../lib/gcc/nios2-elf/4.1.2/../../../../nios2-elf/lib\libc.a(lib_a-makebuf.o)
 .comment       0x00000000       0x27 c:/altera/12.1sp1/nios2eds/bin/gnu/h-i686-mingw32/bin/../lib/gcc/nios2-elf/4.1.2/../../../../nios2-elf/lib\libc.a(lib_a-mallocr.o)
 .comment       0x00000000       0x27 c:/altera/12.1sp1/nios2eds/bin/gnu/h-i686-mingw32/bin/../lib/gcc/nios2-elf/4.1.2/../../../../nios2-elf/lib\libc.a(lib_a-memchr.o)
 .comment       0x00000000       0x27 c:/altera/12.1sp1/nios2eds/bin/gnu/h-i686-mingw32/bin/../lib/gcc/nios2-elf/4.1.2/../../../../nios2-elf/lib\libc.a(lib_a-memcpy.o)
 .comment       0x00000000       0x27 c:/altera/12.1sp1/nios2eds/bin/gnu/h-i686-mingw32/bin/../lib/gcc/nios2-elf/4.1.2/../../../../nios2-elf/lib\libc.a(lib_a-memmove.o)
 .comment       0x00000000       0x27 c:/altera/12.1sp1/nios2eds/bin/gnu/h-i686-mingw32/bin/../lib/gcc/nios2-elf/4.1.2/../../../../nios2-elf/lib\libc.a(lib_a-memset.o)
 .comment       0x00000000       0x27 c:/altera/12.1sp1/nios2eds/bin/gnu/h-i686-mingw32/bin/../lib/gcc/nios2-elf/4.1.2/../../../../nios2-elf/lib\libc.a(lib_a-mprec.o)
 .comment       0x00000000       0x27 c:/altera/12.1sp1/nios2eds/bin/gnu/h-i686-mingw32/bin/../lib/gcc/nios2-elf/4.1.2/../../../../nios2-elf/lib\libc.a(lib_a-putc.o)
 .comment       0x00000000       0x27 c:/altera/12.1sp1/nios2eds/bin/gnu/h-i686-mingw32/bin/../lib/gcc/nios2-elf/4.1.2/../../../../nios2-elf/lib\libc.a(lib_a-reallocr.o)
 .comment       0x00000000       0x27 c:/altera/12.1sp1/nios2eds/bin/gnu/h-i686-mingw32/bin/../lib/gcc/nios2-elf/4.1.2/../../../../nios2-elf/lib\libc.a(lib_a-s_isinfd.o)
 .comment       0x00000000       0x27 c:/altera/12.1sp1/nios2eds/bin/gnu/h-i686-mingw32/bin/../lib/gcc/nios2-elf/4.1.2/../../../../nios2-elf/lib\libc.a(lib_a-s_isnand.o)
 .comment       0x00000000       0x27 c:/altera/12.1sp1/nios2eds/bin/gnu/h-i686-mingw32/bin/../lib/gcc/nios2-elf/4.1.2/../../../../nios2-elf/lib\libc.a(lib_a-sbrkr.o)
 .comment       0x00000000       0x27 c:/altera/12.1sp1/nios2eds/bin/gnu/h-i686-mingw32/bin/../lib/gcc/nios2-elf/4.1.2/../../../../nios2-elf/lib\libc.a(lib_a-stdio.o)
 .comment       0x00000000       0x27 c:/altera/12.1sp1/nios2eds/bin/gnu/h-i686-mingw32/bin/../lib/gcc/nios2-elf/4.1.2/../../../../nios2-elf/lib\libc.a(lib_a-strcmp.o)
 .comment       0x00000000       0x27 c:/altera/12.1sp1/nios2eds/bin/gnu/h-i686-mingw32/bin/../lib/gcc/nios2-elf/4.1.2/../../../../nios2-elf/lib\libc.a(lib_a-strlen.o)
 .comment       0x00000000       0x27 c:/altera/12.1sp1/nios2eds/bin/gnu/h-i686-mingw32/bin/../lib/gcc/nios2-elf/4.1.2/../../../../nios2-elf/lib\libc.a(lib_a-wbuf.o)
 .comment       0x00000000       0x27 c:/altera/12.1sp1/nios2eds/bin/gnu/h-i686-mingw32/bin/../lib/gcc/nios2-elf/4.1.2/../../../../nios2-elf/lib\libc.a(lib_a-writer.o)
 .comment       0x00000000       0x27 c:/altera/12.1sp1/nios2eds/bin/gnu/h-i686-mingw32/bin/../lib/gcc/nios2-elf/4.1.2/../../../../nios2-elf/lib\libc.a(lib_a-callocr.o)
 .comment       0x00000000       0x27 c:/altera/12.1sp1/nios2eds/bin/gnu/h-i686-mingw32/bin/../lib/gcc/nios2-elf/4.1.2/../../../../nios2-elf/lib\libc.a(lib_a-closer.o)
 .comment       0x00000000       0x27 c:/altera/12.1sp1/nios2eds/bin/gnu/h-i686-mingw32/bin/../lib/gcc/nios2-elf/4.1.2/../../../../nios2-elf/lib\libc.a(lib_a-fclose.o)
 .comment       0x00000000       0x27 c:/altera/12.1sp1/nios2eds/bin/gnu/h-i686-mingw32/bin/../lib/gcc/nios2-elf/4.1.2/../../../../nios2-elf/lib\libc.a(lib_a-fstatr.o)
 .comment       0x00000000       0x27 c:/altera/12.1sp1/nios2eds/bin/gnu/h-i686-mingw32/bin/../lib/gcc/nios2-elf/4.1.2/../../../../nios2-elf/lib\libc.a(lib_a-int_errno.o)
 .comment       0x00000000       0x27 c:/altera/12.1sp1/nios2eds/bin/gnu/h-i686-mingw32/bin/../lib/gcc/nios2-elf/4.1.2/../../../../nios2-elf/lib\libc.a(lib_a-isattyr.o)
 .comment       0x00000000       0x27 c:/altera/12.1sp1/nios2eds/bin/gnu/h-i686-mingw32/bin/../lib/gcc/nios2-elf/4.1.2/../../../../nios2-elf/lib\libc.a(lib_a-lseekr.o)
 .comment       0x00000000       0x27 c:/altera/12.1sp1/nios2eds/bin/gnu/h-i686-mingw32/bin/../lib/gcc/nios2-elf/4.1.2/../../../../nios2-elf/lib\libc.a(lib_a-readr.o)
 .comment       0x00000000       0x27 c:/altera/12.1sp1/nios2eds/bin/gnu/h-i686-mingw32/bin/../lib/gcc/nios2-elf/4.1.2\libgcc.a(_udivdi3.o)
 .comment       0x00000000       0x27 c:/altera/12.1sp1/nios2eds/bin/gnu/h-i686-mingw32/bin/../lib/gcc/nios2-elf/4.1.2\libgcc.a(_umoddi3.o)
 .comment       0x00000000       0x27 c:/altera/12.1sp1/nios2eds/bin/gnu/h-i686-mingw32/bin/../lib/gcc/nios2-elf/4.1.2\libgcc.a(_addsub_df.o)
 .comment       0x00000000       0x27 c:/altera/12.1sp1/nios2eds/bin/gnu/h-i686-mingw32/bin/../lib/gcc/nios2-elf/4.1.2\libgcc.a(_mul_df.o)
 .comment       0x00000000       0x27 c:/altera/12.1sp1/nios2eds/bin/gnu/h-i686-mingw32/bin/../lib/gcc/nios2-elf/4.1.2\libgcc.a(_div_df.o)
 .comment       0x00000000       0x27 c:/altera/12.1sp1/nios2eds/bin/gnu/h-i686-mingw32/bin/../lib/gcc/nios2-elf/4.1.2\libgcc.a(_eq_df.o)
 .comment       0x00000000       0x27 c:/altera/12.1sp1/nios2eds/bin/gnu/h-i686-mingw32/bin/../lib/gcc/nios2-elf/4.1.2\libgcc.a(_ne_df.o)
 .comment       0x00000000       0x27 c:/altera/12.1sp1/nios2eds/bin/gnu/h-i686-mingw32/bin/../lib/gcc/nios2-elf/4.1.2\libgcc.a(_gt_df.o)
 .comment       0x00000000       0x27 c:/altera/12.1sp1/nios2eds/bin/gnu/h-i686-mingw32/bin/../lib/gcc/nios2-elf/4.1.2\libgcc.a(_ge_df.o)
 .comment       0x00000000       0x27 c:/altera/12.1sp1/nios2eds/bin/gnu/h-i686-mingw32/bin/../lib/gcc/nios2-elf/4.1.2\libgcc.a(_lt_df.o)
 .comment       0x00000000       0x27 c:/altera/12.1sp1/nios2eds/bin/gnu/h-i686-mingw32/bin/../lib/gcc/nios2-elf/4.1.2\libgcc.a(_si_to_df.o)
 .comment       0x00000000       0x27 c:/altera/12.1sp1/nios2eds/bin/gnu/h-i686-mingw32/bin/../lib/gcc/nios2-elf/4.1.2\libgcc.a(_df_to_si.o)
 .comment       0x00000000       0x27 c:/altera/12.1sp1/nios2eds/bin/gnu/h-i686-mingw32/bin/../lib/gcc/nios2-elf/4.1.2\libgcc.a(_thenan_df.o)
 .comment       0x00000000       0x27 c:/altera/12.1sp1/nios2eds/bin/gnu/h-i686-mingw32/bin/../lib/gcc/nios2-elf/4.1.2\libgcc.a(_usi_to_df.o)
 .comment       0x00000000       0x27 c:/altera/12.1sp1/nios2eds/bin/gnu/h-i686-mingw32/bin/../lib/gcc/nios2-elf/4.1.2\libgcc.a(_muldi3.o)
 .comment       0x00000000       0x27 c:/altera/12.1sp1/nios2eds/bin/gnu/h-i686-mingw32/bin/../lib/gcc/nios2-elf/4.1.2\libgcc.a(_clz.o)
 .comment       0x00000000       0x27 c:/altera/12.1sp1/nios2eds/bin/gnu/h-i686-mingw32/bin/../lib/gcc/nios2-elf/4.1.2\libgcc.a(_clzsi2.o)
 .comment       0x00000000       0x27 c:/altera/12.1sp1/nios2eds/bin/gnu/h-i686-mingw32/bin/../lib/gcc/nios2-elf/4.1.2\libgcc.a(_pack_df.o)
 .comment       0x00000000       0x27 c:/altera/12.1sp1/nios2eds/bin/gnu/h-i686-mingw32/bin/../lib/gcc/nios2-elf/4.1.2\libgcc.a(_unpack_df.o)
 .comment       0x00000000       0x27 c:/altera/12.1sp1/nios2eds/bin/gnu/h-i686-mingw32/bin/../lib/gcc/nios2-elf/4.1.2\libgcc.a(_fpcmp_parts_df.o)
 .comment       0x00000000       0x27 ../SynthUnitTest_bsp/\libucosii_bsp.a(alt_close.o)
 .comment       0x00000000       0x27 ../SynthUnitTest_bsp/\libucosii_bsp.a(alt_dev.o)
 .comment       0x00000000       0x27 ../SynthUnitTest_bsp/\libucosii_bsp.a(alt_errno.o)
 .comment       0x00000000       0x27 ../SynthUnitTest_bsp/\libucosii_bsp.a(alt_fstat.o)
 .comment       0x00000000       0x27 ../SynthUnitTest_bsp/\libucosii_bsp.a(alt_isatty.o)
 .comment       0x00000000       0x27 ../SynthUnitTest_bsp/\libucosii_bsp.a(alt_load.o)
 .comment       0x00000000       0x27 ../SynthUnitTest_bsp/\libucosii_bsp.a(alt_lseek.o)
 .comment       0x00000000       0x27 ../SynthUnitTest_bsp/\libucosii_bsp.a(alt_main.o)
 .comment       0x00000000       0x27 ../SynthUnitTest_bsp/\libucosii_bsp.a(alt_read.o)
 .comment       0x00000000       0x27 ../SynthUnitTest_bsp/\libucosii_bsp.a(alt_release_fd.o)
 .comment       0x00000000       0x27 ../SynthUnitTest_bsp/\libucosii_bsp.a(alt_sbrk.o)
 .comment       0x00000000       0x27 ../SynthUnitTest_bsp/\libucosii_bsp.a(alt_write.o)
 .comment       0x00000000       0x27 ../SynthUnitTest_bsp/\libucosii_bsp.a(alt_env_lock.o)
 .comment       0x00000000       0x27 ../SynthUnitTest_bsp/\libucosii_bsp.a(alt_malloc_lock.o)
 .comment       0x00000000       0x27 ../SynthUnitTest_bsp/\libucosii_bsp.a(os_core.o)
 .comment       0x00000000       0x27 ../SynthUnitTest_bsp/\libucosii_bsp.a(os_dbg.o)
 .comment       0x00000000       0x27 ../SynthUnitTest_bsp/\libucosii_bsp.a(os_flag.o)
 .comment       0x00000000       0x27 ../SynthUnitTest_bsp/\libucosii_bsp.a(os_mem.o)
 .comment       0x00000000       0x27 ../SynthUnitTest_bsp/\libucosii_bsp.a(os_q.o)
 .comment       0x00000000       0x27 ../SynthUnitTest_bsp/\libucosii_bsp.a(os_sem.o)
 .comment       0x00000000       0x27 ../SynthUnitTest_bsp/\libucosii_bsp.a(os_task.o)
 .comment       0x00000000       0x27 ../SynthUnitTest_bsp/\libucosii_bsp.a(os_time.o)
 .comment       0x00000000       0x27 ../SynthUnitTest_bsp/\libucosii_bsp.a(alt_sys_init.o)
 .comment       0x00000000       0x27 ../SynthUnitTest_bsp/\libucosii_bsp.a(altera_avalon_fifo_util.o)
 .comment       0x00000000       0x27 ../SynthUnitTest_bsp/\libucosii_bsp.a(altera_avalon_jtag_uart_fd.o)
 .comment       0x00000000       0x27 ../SynthUnitTest_bsp/\libucosii_bsp.a(altera_avalon_jtag_uart_init.o)
 .comment       0x00000000       0x27 ../SynthUnitTest_bsp/\libucosii_bsp.a(altera_avalon_jtag_uart_ioctl.o)
 .comment       0x00000000       0x27 ../SynthUnitTest_bsp/\libucosii_bsp.a(altera_avalon_jtag_uart_read.o)
 .comment       0x00000000       0x27 ../SynthUnitTest_bsp/\libucosii_bsp.a(altera_avalon_jtag_uart_write.o)
 .comment       0x00000000       0x27 ../SynthUnitTest_bsp/\libucosii_bsp.a(altera_avalon_timer_sc.o)
 .comment       0x00000000       0x27 ../SynthUnitTest_bsp/\libucosii_bsp.a(altera_up_avalon_character_lcd.o)
 .comment       0x00000000       0x27 ../SynthUnitTest_bsp/\libucosii_bsp.a(alt_alarm_start.o)
 .comment       0x00000000       0x27 ../SynthUnitTest_bsp/\libucosii_bsp.a(alt_dcache_flush_all.o)
 .comment       0x00000000       0x27 ../SynthUnitTest_bsp/\libucosii_bsp.a(alt_dev_llist_insert.o)
 .comment       0x00000000       0x27 ../SynthUnitTest_bsp/\libucosii_bsp.a(alt_do_ctors.o)
 .comment       0x00000000       0x27 ../SynthUnitTest_bsp/\libucosii_bsp.a(alt_do_dtors.o)
 .comment       0x00000000       0x27 ../SynthUnitTest_bsp/\libucosii_bsp.a(alt_find_dev.o)
 .comment       0x00000000       0x27 ../SynthUnitTest_bsp/\libucosii_bsp.a(alt_icache_flush_all.o)
 .comment       0x00000000       0x27 ../SynthUnitTest_bsp/\libucosii_bsp.a(alt_iic.o)
 .comment       0x00000000       0x27 ../SynthUnitTest_bsp/\libucosii_bsp.a(alt_iic_isr_register.o)
 .comment       0x00000000       0x27 ../SynthUnitTest_bsp/\libucosii_bsp.a(alt_io_redirect.o)
 .comment       0x00000000       0x27 ../SynthUnitTest_bsp/\libucosii_bsp.a(alt_irq_handler.o)
 .comment       0x00000000       0x27 ../SynthUnitTest_bsp/\libucosii_bsp.a(alt_irq_vars.o)
 .comment       0x00000000       0x27 ../SynthUnitTest_bsp/\libucosii_bsp.a(alt_open.o)
 .comment       0x00000000       0x27 ../SynthUnitTest_bsp/\libucosii_bsp.a(alt_tick.o)
 .comment       0x00000000       0x27 ../SynthUnitTest_bsp/\libucosii_bsp.a(altera_nios2_qsys_irq.o)
 .comment       0x00000000       0x27 ../SynthUnitTest_bsp/\libucosii_bsp.a(os_cpu_c.o)
 .comment       0x00000000       0x27 ../SynthUnitTest_bsp/\libucosii_bsp.a(alt_find_file.o)
 .comment       0x00000000       0x27 ../SynthUnitTest_bsp/\libucosii_bsp.a(alt_get_fd.o)
 .comment       0x00000000       0x27 ../SynthUnitTest_bsp/\libucosii_bsp.a(alt_icache_flush.o)
 .comment       0x00000000       0x27 c:/altera/12.1sp1/nios2eds/bin/gnu/h-i686-mingw32/bin/../lib/gcc/nios2-elf/4.1.2/../../../../nios2-elf/lib\libc.a(lib_a-atexit.o)
 .comment       0x00000000       0x27 c:/altera/12.1sp1/nios2eds/bin/gnu/h-i686-mingw32/bin/../lib/gcc/nios2-elf/4.1.2/../../../../nios2-elf/lib\libc.a(lib_a-exit.o)
 .comment       0x00000000       0x27 c:/altera/12.1sp1/nios2eds/bin/gnu/h-i686-mingw32/bin/../lib/gcc/nios2-elf/4.1.2/../../../../nios2-elf/lib\libc.a(lib_a-memcmp.o)
 .comment       0x00000000       0x27 c:/altera/12.1sp1/nios2eds/bin/gnu/h-i686-mingw32/bin/../lib/gcc/nios2-elf/4.1.2/../../../../nios2-elf/lib\libc.a(lib_a-__atexit.o)
 .comment       0x00000000       0x27 c:/altera/12.1sp1/nios2eds/bin/gnu/h-i686-mingw32/bin/../lib/gcc/nios2-elf/4.1.2/../../../../nios2-elf/lib\libc.a(lib_a-__call_atexit.o)
 .comment       0x00000000       0x27 ../SynthUnitTest_bsp/\libucosii_bsp.a(alt_exit.o)

.debug
 *(.debug)

.line
 *(.line)

.debug_srcinfo
 *(.debug_srcinfo)

.debug_sfnames
 *(.debug_sfnames)

.debug_aranges  0x00000000      0xe58
 *(.debug_aranges)
 .debug_aranges
                0x00000000       0x28 ../SynthUnitTest_bsp//obj/HAL/src/crt0.o
 .debug_aranges
                0x00000028       0x20 obj/default/hello_ucosii.o
 .debug_aranges
                0x00000048       0x20 c:/altera/12.1sp1/nios2eds/bin/gnu/h-i686-mingw32/bin/../lib/gcc/nios2-elf/4.1.2\libgcc.a(lib2-divmod.o)
 .debug_aranges
                0x00000068       0x20 c:/altera/12.1sp1/nios2eds/bin/gnu/h-i686-mingw32/bin/../lib/gcc/nios2-elf/4.1.2/../../../../nios2-elf/lib\libc.a(lib_a-printf.o)
 .debug_aranges
                0x00000088       0x20 c:/altera/12.1sp1/nios2eds/bin/gnu/h-i686-mingw32/bin/../lib/gcc/nios2-elf/4.1.2/../../../../nios2-elf/lib\libc.a(lib_a-putchar.o)
 .debug_aranges
                0x000000a8       0x20 c:/altera/12.1sp1/nios2eds/bin/gnu/h-i686-mingw32/bin/../lib/gcc/nios2-elf/4.1.2/../../../../nios2-elf/lib\libc.a(lib_a-vfprintf.o)
 .debug_aranges
                0x000000c8       0x20 c:/altera/12.1sp1/nios2eds/bin/gnu/h-i686-mingw32/bin/../lib/gcc/nios2-elf/4.1.2/../../../../nios2-elf/lib\libc.a(lib_a-wsetup.o)
 .debug_aranges
                0x000000e8       0x20 c:/altera/12.1sp1/nios2eds/bin/gnu/h-i686-mingw32/bin/../lib/gcc/nios2-elf/4.1.2/../../../../nios2-elf/lib\libc.a(lib_a-dtoa.o)
 .debug_aranges
                0x00000108       0x20 c:/altera/12.1sp1/nios2eds/bin/gnu/h-i686-mingw32/bin/../lib/gcc/nios2-elf/4.1.2/../../../../nios2-elf/lib\libc.a(lib_a-fflush.o)
 .debug_aranges
                0x00000128       0x20 c:/altera/12.1sp1/nios2eds/bin/gnu/h-i686-mingw32/bin/../lib/gcc/nios2-elf/4.1.2/../../../../nios2-elf/lib\libc.a(lib_a-findfp.o)
 .debug_aranges
                0x00000148       0x20 c:/altera/12.1sp1/nios2eds/bin/gnu/h-i686-mingw32/bin/../lib/gcc/nios2-elf/4.1.2/../../../../nios2-elf/lib\libc.a(lib_a-freer.o)
 .debug_aranges
                0x00000168       0x20 c:/altera/12.1sp1/nios2eds/bin/gnu/h-i686-mingw32/bin/../lib/gcc/nios2-elf/4.1.2/../../../../nios2-elf/lib\libc.a(lib_a-fvwrite.o)
 .debug_aranges
                0x00000188       0x20 c:/altera/12.1sp1/nios2eds/bin/gnu/h-i686-mingw32/bin/../lib/gcc/nios2-elf/4.1.2/../../../../nios2-elf/lib\libc.a(lib_a-fwalk.o)
 .debug_aranges
                0x000001a8       0x20 c:/altera/12.1sp1/nios2eds/bin/gnu/h-i686-mingw32/bin/../lib/gcc/nios2-elf/4.1.2/../../../../nios2-elf/lib\libc.a(lib_a-locale.o)
 .debug_aranges
                0x000001c8       0x20 c:/altera/12.1sp1/nios2eds/bin/gnu/h-i686-mingw32/bin/../lib/gcc/nios2-elf/4.1.2/../../../../nios2-elf/lib\libc.a(lib_a-makebuf.o)
 .debug_aranges
                0x000001e8       0x20 c:/altera/12.1sp1/nios2eds/bin/gnu/h-i686-mingw32/bin/../lib/gcc/nios2-elf/4.1.2/../../../../nios2-elf/lib\libc.a(lib_a-mallocr.o)
 .debug_aranges
                0x00000208       0x20 c:/altera/12.1sp1/nios2eds/bin/gnu/h-i686-mingw32/bin/../lib/gcc/nios2-elf/4.1.2/../../../../nios2-elf/lib\libc.a(lib_a-memchr.o)
 .debug_aranges
                0x00000228       0x20 c:/altera/12.1sp1/nios2eds/bin/gnu/h-i686-mingw32/bin/../lib/gcc/nios2-elf/4.1.2/../../../../nios2-elf/lib\libc.a(lib_a-memcpy.o)
 .debug_aranges
                0x00000248       0x20 c:/altera/12.1sp1/nios2eds/bin/gnu/h-i686-mingw32/bin/../lib/gcc/nios2-elf/4.1.2/../../../../nios2-elf/lib\libc.a(lib_a-memmove.o)
 .debug_aranges
                0x00000268       0x20 c:/altera/12.1sp1/nios2eds/bin/gnu/h-i686-mingw32/bin/../lib/gcc/nios2-elf/4.1.2/../../../../nios2-elf/lib\libc.a(lib_a-memset.o)
 .debug_aranges
                0x00000288       0x20 c:/altera/12.1sp1/nios2eds/bin/gnu/h-i686-mingw32/bin/../lib/gcc/nios2-elf/4.1.2/../../../../nios2-elf/lib\libc.a(lib_a-mprec.o)
 .debug_aranges
                0x000002a8       0x20 c:/altera/12.1sp1/nios2eds/bin/gnu/h-i686-mingw32/bin/../lib/gcc/nios2-elf/4.1.2/../../../../nios2-elf/lib\libc.a(lib_a-putc.o)
 .debug_aranges
                0x000002c8       0x20 c:/altera/12.1sp1/nios2eds/bin/gnu/h-i686-mingw32/bin/../lib/gcc/nios2-elf/4.1.2/../../../../nios2-elf/lib\libc.a(lib_a-reallocr.o)
 .debug_aranges
                0x000002e8       0x20 c:/altera/12.1sp1/nios2eds/bin/gnu/h-i686-mingw32/bin/../lib/gcc/nios2-elf/4.1.2/../../../../nios2-elf/lib\libc.a(lib_a-s_isinfd.o)
 .debug_aranges
                0x00000308       0x20 c:/altera/12.1sp1/nios2eds/bin/gnu/h-i686-mingw32/bin/../lib/gcc/nios2-elf/4.1.2/../../../../nios2-elf/lib\libc.a(lib_a-s_isnand.o)
 .debug_aranges
                0x00000328       0x20 c:/altera/12.1sp1/nios2eds/bin/gnu/h-i686-mingw32/bin/../lib/gcc/nios2-elf/4.1.2/../../../../nios2-elf/lib\libc.a(lib_a-sbrkr.o)
 .debug_aranges
                0x00000348       0x20 c:/altera/12.1sp1/nios2eds/bin/gnu/h-i686-mingw32/bin/../lib/gcc/nios2-elf/4.1.2/../../../../nios2-elf/lib\libc.a(lib_a-stdio.o)
 .debug_aranges
                0x00000368       0x20 c:/altera/12.1sp1/nios2eds/bin/gnu/h-i686-mingw32/bin/../lib/gcc/nios2-elf/4.1.2/../../../../nios2-elf/lib\libc.a(lib_a-strcmp.o)
 .debug_aranges
                0x00000388       0x20 c:/altera/12.1sp1/nios2eds/bin/gnu/h-i686-mingw32/bin/../lib/gcc/nios2-elf/4.1.2/../../../../nios2-elf/lib\libc.a(lib_a-strlen.o)
 .debug_aranges
                0x000003a8       0x20 c:/altera/12.1sp1/nios2eds/bin/gnu/h-i686-mingw32/bin/../lib/gcc/nios2-elf/4.1.2/../../../../nios2-elf/lib\libc.a(lib_a-wbuf.o)
 .debug_aranges
                0x000003c8       0x20 c:/altera/12.1sp1/nios2eds/bin/gnu/h-i686-mingw32/bin/../lib/gcc/nios2-elf/4.1.2/../../../../nios2-elf/lib\libc.a(lib_a-writer.o)
 .debug_aranges
                0x000003e8       0x20 c:/altera/12.1sp1/nios2eds/bin/gnu/h-i686-mingw32/bin/../lib/gcc/nios2-elf/4.1.2/../../../../nios2-elf/lib\libc.a(lib_a-callocr.o)
 .debug_aranges
                0x00000408       0x20 c:/altera/12.1sp1/nios2eds/bin/gnu/h-i686-mingw32/bin/../lib/gcc/nios2-elf/4.1.2/../../../../nios2-elf/lib\libc.a(lib_a-closer.o)
 .debug_aranges
                0x00000428       0x20 c:/altera/12.1sp1/nios2eds/bin/gnu/h-i686-mingw32/bin/../lib/gcc/nios2-elf/4.1.2/../../../../nios2-elf/lib\libc.a(lib_a-fclose.o)
 .debug_aranges
                0x00000448       0x20 c:/altera/12.1sp1/nios2eds/bin/gnu/h-i686-mingw32/bin/../lib/gcc/nios2-elf/4.1.2/../../../../nios2-elf/lib\libc.a(lib_a-fstatr.o)
 .debug_aranges
                0x00000468       0x20 c:/altera/12.1sp1/nios2eds/bin/gnu/h-i686-mingw32/bin/../lib/gcc/nios2-elf/4.1.2/../../../../nios2-elf/lib\libc.a(lib_a-isattyr.o)
 .debug_aranges
                0x00000488       0x20 c:/altera/12.1sp1/nios2eds/bin/gnu/h-i686-mingw32/bin/../lib/gcc/nios2-elf/4.1.2/../../../../nios2-elf/lib\libc.a(lib_a-lseekr.o)
 .debug_aranges
                0x000004a8       0x20 c:/altera/12.1sp1/nios2eds/bin/gnu/h-i686-mingw32/bin/../lib/gcc/nios2-elf/4.1.2/../../../../nios2-elf/lib\libc.a(lib_a-readr.o)
 .debug_aranges
                0x000004c8       0x20 c:/altera/12.1sp1/nios2eds/bin/gnu/h-i686-mingw32/bin/../lib/gcc/nios2-elf/4.1.2\libgcc.a(_udivdi3.o)
 .debug_aranges
                0x000004e8       0x20 c:/altera/12.1sp1/nios2eds/bin/gnu/h-i686-mingw32/bin/../lib/gcc/nios2-elf/4.1.2\libgcc.a(_umoddi3.o)
 .debug_aranges
                0x00000508       0x20 c:/altera/12.1sp1/nios2eds/bin/gnu/h-i686-mingw32/bin/../lib/gcc/nios2-elf/4.1.2\libgcc.a(_addsub_df.o)
 .debug_aranges
                0x00000528       0x20 c:/altera/12.1sp1/nios2eds/bin/gnu/h-i686-mingw32/bin/../lib/gcc/nios2-elf/4.1.2\libgcc.a(_mul_df.o)
 .debug_aranges
                0x00000548       0x20 c:/altera/12.1sp1/nios2eds/bin/gnu/h-i686-mingw32/bin/../lib/gcc/nios2-elf/4.1.2\libgcc.a(_div_df.o)
 .debug_aranges
                0x00000568       0x20 c:/altera/12.1sp1/nios2eds/bin/gnu/h-i686-mingw32/bin/../lib/gcc/nios2-elf/4.1.2\libgcc.a(_eq_df.o)
 .debug_aranges
                0x00000588       0x20 c:/altera/12.1sp1/nios2eds/bin/gnu/h-i686-mingw32/bin/../lib/gcc/nios2-elf/4.1.2\libgcc.a(_ne_df.o)
 .debug_aranges
                0x000005a8       0x20 c:/altera/12.1sp1/nios2eds/bin/gnu/h-i686-mingw32/bin/../lib/gcc/nios2-elf/4.1.2\libgcc.a(_gt_df.o)
 .debug_aranges
                0x000005c8       0x20 c:/altera/12.1sp1/nios2eds/bin/gnu/h-i686-mingw32/bin/../lib/gcc/nios2-elf/4.1.2\libgcc.a(_ge_df.o)
 .debug_aranges
                0x000005e8       0x20 c:/altera/12.1sp1/nios2eds/bin/gnu/h-i686-mingw32/bin/../lib/gcc/nios2-elf/4.1.2\libgcc.a(_lt_df.o)
 .debug_aranges
                0x00000608       0x20 c:/altera/12.1sp1/nios2eds/bin/gnu/h-i686-mingw32/bin/../lib/gcc/nios2-elf/4.1.2\libgcc.a(_si_to_df.o)
 .debug_aranges
                0x00000628       0x20 c:/altera/12.1sp1/nios2eds/bin/gnu/h-i686-mingw32/bin/../lib/gcc/nios2-elf/4.1.2\libgcc.a(_df_to_si.o)
 .debug_aranges
                0x00000648       0x20 c:/altera/12.1sp1/nios2eds/bin/gnu/h-i686-mingw32/bin/../lib/gcc/nios2-elf/4.1.2\libgcc.a(_usi_to_df.o)
 .debug_aranges
                0x00000668       0x20 c:/altera/12.1sp1/nios2eds/bin/gnu/h-i686-mingw32/bin/../lib/gcc/nios2-elf/4.1.2\libgcc.a(_muldi3.o)
 .debug_aranges
                0x00000688       0x20 c:/altera/12.1sp1/nios2eds/bin/gnu/h-i686-mingw32/bin/../lib/gcc/nios2-elf/4.1.2\libgcc.a(_clzsi2.o)
 .debug_aranges
                0x000006a8       0x20 c:/altera/12.1sp1/nios2eds/bin/gnu/h-i686-mingw32/bin/../lib/gcc/nios2-elf/4.1.2\libgcc.a(_pack_df.o)
 .debug_aranges
                0x000006c8       0x20 c:/altera/12.1sp1/nios2eds/bin/gnu/h-i686-mingw32/bin/../lib/gcc/nios2-elf/4.1.2\libgcc.a(_unpack_df.o)
 .debug_aranges
                0x000006e8       0x20 c:/altera/12.1sp1/nios2eds/bin/gnu/h-i686-mingw32/bin/../lib/gcc/nios2-elf/4.1.2\libgcc.a(_fpcmp_parts_df.o)
 .debug_aranges
                0x00000708       0x20 ../SynthUnitTest_bsp/\libucosii_bsp.a(alt_close.o)
 .debug_aranges
                0x00000728       0x20 ../SynthUnitTest_bsp/\libucosii_bsp.a(alt_dev.o)
 .debug_aranges
                0x00000748       0x20 ../SynthUnitTest_bsp/\libucosii_bsp.a(alt_fstat.o)
 .debug_aranges
                0x00000768       0x20 ../SynthUnitTest_bsp/\libucosii_bsp.a(alt_isatty.o)
 .debug_aranges
                0x00000788       0x20 ../SynthUnitTest_bsp/\libucosii_bsp.a(alt_load.o)
 .debug_aranges
                0x000007a8       0x20 ../SynthUnitTest_bsp/\libucosii_bsp.a(alt_lseek.o)
 .debug_aranges
                0x000007c8       0x20 ../SynthUnitTest_bsp/\libucosii_bsp.a(alt_main.o)
 .debug_aranges
                0x000007e8       0x20 ../SynthUnitTest_bsp/\libucosii_bsp.a(alt_read.o)
 .debug_aranges
                0x00000808       0x20 ../SynthUnitTest_bsp/\libucosii_bsp.a(alt_release_fd.o)
 .debug_aranges
                0x00000828       0x20 ../SynthUnitTest_bsp/\libucosii_bsp.a(alt_sbrk.o)
 .debug_aranges
                0x00000848       0x20 ../SynthUnitTest_bsp/\libucosii_bsp.a(alt_write.o)
 .debug_aranges
                0x00000868       0x20 ../SynthUnitTest_bsp/\libucosii_bsp.a(alt_env_lock.o)
 .debug_aranges
                0x00000888       0x20 ../SynthUnitTest_bsp/\libucosii_bsp.a(alt_malloc_lock.o)
 .debug_aranges
                0x000008a8       0x20 ../SynthUnitTest_bsp/\libucosii_bsp.a(os_core.o)
 .debug_aranges
                0x000008c8       0x20 ../SynthUnitTest_bsp/\libucosii_bsp.a(os_dbg.o)
 .debug_aranges
                0x000008e8       0x20 ../SynthUnitTest_bsp/\libucosii_bsp.a(os_flag.o)
 .debug_aranges
                0x00000908       0x20 ../SynthUnitTest_bsp/\libucosii_bsp.a(os_mem.o)
 .debug_aranges
                0x00000928       0x20 ../SynthUnitTest_bsp/\libucosii_bsp.a(os_q.o)
 .debug_aranges
                0x00000948       0x20 ../SynthUnitTest_bsp/\libucosii_bsp.a(os_sem.o)
 .debug_aranges
                0x00000968       0x20 ../SynthUnitTest_bsp/\libucosii_bsp.a(os_task.o)
 .debug_aranges
                0x00000988       0x20 ../SynthUnitTest_bsp/\libucosii_bsp.a(os_time.o)
 .debug_aranges
                0x000009a8       0x20 ../SynthUnitTest_bsp/\libucosii_bsp.a(alt_sys_init.o)
 .debug_aranges
                0x000009c8       0x20 ../SynthUnitTest_bsp/\libucosii_bsp.a(altera_avalon_fifo_util.o)
 .debug_aranges
                0x000009e8       0x20 ../SynthUnitTest_bsp/\libucosii_bsp.a(altera_avalon_jtag_uart_fd.o)
 .debug_aranges
                0x00000a08       0x20 ../SynthUnitTest_bsp/\libucosii_bsp.a(altera_avalon_jtag_uart_init.o)
 .debug_aranges
                0x00000a28       0x20 ../SynthUnitTest_bsp/\libucosii_bsp.a(altera_avalon_jtag_uart_ioctl.o)
 .debug_aranges
                0x00000a48       0x20 ../SynthUnitTest_bsp/\libucosii_bsp.a(altera_avalon_jtag_uart_read.o)
 .debug_aranges
                0x00000a68       0x20 ../SynthUnitTest_bsp/\libucosii_bsp.a(altera_avalon_jtag_uart_write.o)
 .debug_aranges
                0x00000a88       0x20 ../SynthUnitTest_bsp/\libucosii_bsp.a(altera_avalon_timer_sc.o)
 .debug_aranges
                0x00000aa8       0x20 ../SynthUnitTest_bsp/\libucosii_bsp.a(altera_up_avalon_character_lcd.o)
 .debug_aranges
                0x00000ac8       0x20 ../SynthUnitTest_bsp/\libucosii_bsp.a(alt_alarm_start.o)
 .debug_aranges
                0x00000ae8       0x20 ../SynthUnitTest_bsp/\libucosii_bsp.a(alt_dcache_flush_all.o)
 .debug_aranges
                0x00000b08       0x20 ../SynthUnitTest_bsp/\libucosii_bsp.a(alt_dev_llist_insert.o)
 .debug_aranges
                0x00000b28       0x20 ../SynthUnitTest_bsp/\libucosii_bsp.a(alt_do_ctors.o)
 .debug_aranges
                0x00000b48       0x20 ../SynthUnitTest_bsp/\libucosii_bsp.a(alt_do_dtors.o)
 .debug_aranges
                0x00000b68       0x20 ../SynthUnitTest_bsp/\libucosii_bsp.a(alt_find_dev.o)
 .debug_aranges
                0x00000b88       0x20 ../SynthUnitTest_bsp/\libucosii_bsp.a(alt_icache_flush_all.o)
 .debug_aranges
                0x00000ba8       0x20 ../SynthUnitTest_bsp/\libucosii_bsp.a(alt_iic.o)
 .debug_aranges
                0x00000bc8       0x20 ../SynthUnitTest_bsp/\libucosii_bsp.a(alt_iic_isr_register.o)
 .debug_aranges
                0x00000be8       0x20 ../SynthUnitTest_bsp/\libucosii_bsp.a(alt_io_redirect.o)
 .debug_aranges
                0x00000c08       0x30 ../SynthUnitTest_bsp/\libucosii_bsp.a(alt_irq_entry.o)
 .debug_aranges
                0x00000c38       0x28 ../SynthUnitTest_bsp/\libucosii_bsp.a(alt_irq_handler.o)
 .debug_aranges
                0x00000c60       0x20 ../SynthUnitTest_bsp/\libucosii_bsp.a(alt_open.o)
 .debug_aranges
                0x00000c80       0x20 ../SynthUnitTest_bsp/\libucosii_bsp.a(alt_tick.o)
 .debug_aranges
                0x00000ca0       0x20 ../SynthUnitTest_bsp/\libucosii_bsp.a(altera_nios2_qsys_irq.o)
 .debug_aranges
                0x00000cc0       0x20 ../SynthUnitTest_bsp/\libucosii_bsp.a(os_cpu_a.o)
 .debug_aranges
                0x00000ce0       0x20 ../SynthUnitTest_bsp/\libucosii_bsp.a(os_cpu_c.o)
 .debug_aranges
                0x00000d00       0x38 ../SynthUnitTest_bsp/\libucosii_bsp.a(alt_exception_entry.o)
 .debug_aranges
                0x00000d38       0x20 ../SynthUnitTest_bsp/\libucosii_bsp.a(alt_find_file.o)
 .debug_aranges
                0x00000d58       0x20 ../SynthUnitTest_bsp/\libucosii_bsp.a(alt_get_fd.o)
 .debug_aranges
                0x00000d78       0x20 ../SynthUnitTest_bsp/\libucosii_bsp.a(alt_icache_flush.o)
 .debug_aranges
                0x00000d98       0x20 c:/altera/12.1sp1/nios2eds/bin/gnu/h-i686-mingw32/bin/../lib/gcc/nios2-elf/4.1.2/../../../../nios2-elf/lib\libc.a(lib_a-atexit.o)
 .debug_aranges
                0x00000db8       0x20 c:/altera/12.1sp1/nios2eds/bin/gnu/h-i686-mingw32/bin/../lib/gcc/nios2-elf/4.1.2/../../../../nios2-elf/lib\libc.a(lib_a-exit.o)
 .debug_aranges
                0x00000dd8       0x20 c:/altera/12.1sp1/nios2eds/bin/gnu/h-i686-mingw32/bin/../lib/gcc/nios2-elf/4.1.2/../../../../nios2-elf/lib\libc.a(lib_a-memcmp.o)
 .debug_aranges
                0x00000df8       0x20 c:/altera/12.1sp1/nios2eds/bin/gnu/h-i686-mingw32/bin/../lib/gcc/nios2-elf/4.1.2/../../../../nios2-elf/lib\libc.a(lib_a-__atexit.o)
 .debug_aranges
                0x00000e18       0x20 c:/altera/12.1sp1/nios2eds/bin/gnu/h-i686-mingw32/bin/../lib/gcc/nios2-elf/4.1.2/../../../../nios2-elf/lib\libc.a(lib_a-__call_atexit.o)
 .debug_aranges
                0x00000e38       0x20 ../SynthUnitTest_bsp/\libucosii_bsp.a(alt_exit.o)

.debug_pubnames
                0x00000000     0x2497
 *(.debug_pubnames)
 .debug_pubnames
                0x00000000       0x33 obj/default/hello_ucosii.o
 .debug_pubnames
                0x00000033       0x48 c:/altera/12.1sp1/nios2eds/bin/gnu/h-i686-mingw32/bin/../lib/gcc/nios2-elf/4.1.2\libgcc.a(lib2-divmod.o)
 .debug_pubnames
                0x0000007b       0x2b c:/altera/12.1sp1/nios2eds/bin/gnu/h-i686-mingw32/bin/../lib/gcc/nios2-elf/4.1.2/../../../../nios2-elf/lib\libc.a(lib_a-printf.o)
 .debug_pubnames
                0x000000a6       0x2d c:/altera/12.1sp1/nios2eds/bin/gnu/h-i686-mingw32/bin/../lib/gcc/nios2-elf/4.1.2/../../../../nios2-elf/lib\libc.a(lib_a-putchar.o)
 .debug_pubnames
                0x000000d3       0x45 c:/altera/12.1sp1/nios2eds/bin/gnu/h-i686-mingw32/bin/../lib/gcc/nios2-elf/4.1.2/../../../../nios2-elf/lib\libc.a(lib_a-vfprintf.o)
 .debug_pubnames
                0x00000118       0x22 c:/altera/12.1sp1/nios2eds/bin/gnu/h-i686-mingw32/bin/../lib/gcc/nios2-elf/4.1.2/../../../../nios2-elf/lib\libc.a(lib_a-wsetup.o)
 .debug_pubnames
                0x0000013a       0x1e c:/altera/12.1sp1/nios2eds/bin/gnu/h-i686-mingw32/bin/../lib/gcc/nios2-elf/4.1.2/../../../../nios2-elf/lib\libc.a(lib_a-dtoa.o)
 .debug_pubnames
                0x00000158       0x2b c:/altera/12.1sp1/nios2eds/bin/gnu/h-i686-mingw32/bin/../lib/gcc/nios2-elf/4.1.2/../../../../nios2-elf/lib\libc.a(lib_a-fflush.o)
 .debug_pubnames
                0x00000183       0xdb c:/altera/12.1sp1/nios2eds/bin/gnu/h-i686-mingw32/bin/../lib/gcc/nios2-elf/4.1.2/../../../../nios2-elf/lib\libc.a(lib_a-findfp.o)
 .debug_pubnames
                0x0000025e       0x31 c:/altera/12.1sp1/nios2eds/bin/gnu/h-i686-mingw32/bin/../lib/gcc/nios2-elf/4.1.2/../../../../nios2-elf/lib\libc.a(lib_a-freer.o)
 .debug_pubnames
                0x0000028f       0x23 c:/altera/12.1sp1/nios2eds/bin/gnu/h-i686-mingw32/bin/../lib/gcc/nios2-elf/4.1.2/../../../../nios2-elf/lib\libc.a(lib_a-fvwrite.o)
 .debug_pubnames
                0x000002b2       0x2e c:/altera/12.1sp1/nios2eds/bin/gnu/h-i686-mingw32/bin/../lib/gcc/nios2-elf/4.1.2/../../../../nios2-elf/lib\libc.a(lib_a-fwalk.o)
 .debug_pubnames
                0x000002e0       0x39 c:/altera/12.1sp1/nios2eds/bin/gnu/h-i686-mingw32/bin/../lib/gcc/nios2-elf/4.1.2/../../../../nios2-elf/lib\libc.a(lib_a-impure.o)
 .debug_pubnames
                0x00000319       0xc3 c:/altera/12.1sp1/nios2eds/bin/gnu/h-i686-mingw32/bin/../lib/gcc/nios2-elf/4.1.2/../../../../nios2-elf/lib\libc.a(lib_a-locale.o)
 .debug_pubnames
                0x000003dc       0x23 c:/altera/12.1sp1/nios2eds/bin/gnu/h-i686-mingw32/bin/../lib/gcc/nios2-elf/4.1.2/../../../../nios2-elf/lib\libc.a(lib_a-makebuf.o)
 .debug_pubnames
                0x000003ff       0xce c:/altera/12.1sp1/nios2eds/bin/gnu/h-i686-mingw32/bin/../lib/gcc/nios2-elf/4.1.2/../../../../nios2-elf/lib\libc.a(lib_a-mallocr.o)
 .debug_pubnames
                0x000004cd       0x1d c:/altera/12.1sp1/nios2eds/bin/gnu/h-i686-mingw32/bin/../lib/gcc/nios2-elf/4.1.2/../../../../nios2-elf/lib\libc.a(lib_a-memchr.o)
 .debug_pubnames
                0x000004ea       0x1d c:/altera/12.1sp1/nios2eds/bin/gnu/h-i686-mingw32/bin/../lib/gcc/nios2-elf/4.1.2/../../../../nios2-elf/lib\libc.a(lib_a-memcpy.o)
 .debug_pubnames
                0x00000507       0x1e c:/altera/12.1sp1/nios2eds/bin/gnu/h-i686-mingw32/bin/../lib/gcc/nios2-elf/4.1.2/../../../../nios2-elf/lib\libc.a(lib_a-memmove.o)
 .debug_pubnames
                0x00000525       0x1d c:/altera/12.1sp1/nios2eds/bin/gnu/h-i686-mingw32/bin/../lib/gcc/nios2-elf/4.1.2/../../../../nios2-elf/lib\libc.a(lib_a-memset.o)
 .debug_pubnames
                0x00000542      0x13a c:/altera/12.1sp1/nios2eds/bin/gnu/h-i686-mingw32/bin/../lib/gcc/nios2-elf/4.1.2/../../../../nios2-elf/lib\libc.a(lib_a-mprec.o)
 .debug_pubnames
                0x0000067c       0x27 c:/altera/12.1sp1/nios2eds/bin/gnu/h-i686-mingw32/bin/../lib/gcc/nios2-elf/4.1.2/../../../../nios2-elf/lib\libc.a(lib_a-putc.o)
 .debug_pubnames
                0x000006a3       0x21 c:/altera/12.1sp1/nios2eds/bin/gnu/h-i686-mingw32/bin/../lib/gcc/nios2-elf/4.1.2/../../../../nios2-elf/lib\libc.a(lib_a-reallocr.o)
 .debug_pubnames
                0x000006c4       0x1f c:/altera/12.1sp1/nios2eds/bin/gnu/h-i686-mingw32/bin/../lib/gcc/nios2-elf/4.1.2/../../../../nios2-elf/lib\libc.a(lib_a-s_isinfd.o)
 .debug_pubnames
                0x000006e3       0x1f c:/altera/12.1sp1/nios2eds/bin/gnu/h-i686-mingw32/bin/../lib/gcc/nios2-elf/4.1.2/../../../../nios2-elf/lib\libc.a(lib_a-s_isnand.o)
 .debug_pubnames
                0x00000702       0x1e c:/altera/12.1sp1/nios2eds/bin/gnu/h-i686-mingw32/bin/../lib/gcc/nios2-elf/4.1.2/../../../../nios2-elf/lib\libc.a(lib_a-sbrkr.o)
 .debug_pubnames
                0x00000720       0x44 c:/altera/12.1sp1/nios2eds/bin/gnu/h-i686-mingw32/bin/../lib/gcc/nios2-elf/4.1.2/../../../../nios2-elf/lib\libc.a(lib_a-stdio.o)
 .debug_pubnames
                0x00000764       0x1d c:/altera/12.1sp1/nios2eds/bin/gnu/h-i686-mingw32/bin/../lib/gcc/nios2-elf/4.1.2/../../../../nios2-elf/lib\libc.a(lib_a-strcmp.o)
 .debug_pubnames
                0x00000781       0x1d c:/altera/12.1sp1/nios2eds/bin/gnu/h-i686-mingw32/bin/../lib/gcc/nios2-elf/4.1.2/../../../../nios2-elf/lib\libc.a(lib_a-strlen.o)
 .debug_pubnames
                0x0000079e       0x2c c:/altera/12.1sp1/nios2eds/bin/gnu/h-i686-mingw32/bin/../lib/gcc/nios2-elf/4.1.2/../../../../nios2-elf/lib\libc.a(lib_a-wbuf.o)
 .debug_pubnames
                0x000007ca       0x1f c:/altera/12.1sp1/nios2eds/bin/gnu/h-i686-mingw32/bin/../lib/gcc/nios2-elf/4.1.2/../../../../nios2-elf/lib\libc.a(lib_a-writer.o)
 .debug_pubnames
                0x000007e9       0x20 c:/altera/12.1sp1/nios2eds/bin/gnu/h-i686-mingw32/bin/../lib/gcc/nios2-elf/4.1.2/../../../../nios2-elf/lib\libc.a(lib_a-callocr.o)
 .debug_pubnames
                0x00000809       0x1f c:/altera/12.1sp1/nios2eds/bin/gnu/h-i686-mingw32/bin/../lib/gcc/nios2-elf/4.1.2/../../../../nios2-elf/lib\libc.a(lib_a-closer.o)
 .debug_pubnames
                0x00000828       0x2b c:/altera/12.1sp1/nios2eds/bin/gnu/h-i686-mingw32/bin/../lib/gcc/nios2-elf/4.1.2/../../../../nios2-elf/lib\libc.a(lib_a-fclose.o)
 .debug_pubnames
                0x00000853       0x1f c:/altera/12.1sp1/nios2eds/bin/gnu/h-i686-mingw32/bin/../lib/gcc/nios2-elf/4.1.2/../../../../nios2-elf/lib\libc.a(lib_a-fstatr.o)
 .debug_pubnames
                0x00000872       0x1c c:/altera/12.1sp1/nios2eds/bin/gnu/h-i686-mingw32/bin/../lib/gcc/nios2-elf/4.1.2/../../../../nios2-elf/lib\libc.a(lib_a-int_errno.o)
 .debug_pubnames
                0x0000088e       0x20 c:/altera/12.1sp1/nios2eds/bin/gnu/h-i686-mingw32/bin/../lib/gcc/nios2-elf/4.1.2/../../../../nios2-elf/lib\libc.a(lib_a-isattyr.o)
 .debug_pubnames
                0x000008ae       0x1f c:/altera/12.1sp1/nios2eds/bin/gnu/h-i686-mingw32/bin/../lib/gcc/nios2-elf/4.1.2/../../../../nios2-elf/lib\libc.a(lib_a-lseekr.o)
 .debug_pubnames
                0x000008cd       0x1e c:/altera/12.1sp1/nios2eds/bin/gnu/h-i686-mingw32/bin/../lib/gcc/nios2-elf/4.1.2/../../../../nios2-elf/lib\libc.a(lib_a-readr.o)
 .debug_pubnames
                0x000008eb       0x20 c:/altera/12.1sp1/nios2eds/bin/gnu/h-i686-mingw32/bin/../lib/gcc/nios2-elf/4.1.2\libgcc.a(_udivdi3.o)
 .debug_pubnames
                0x0000090b       0x20 c:/altera/12.1sp1/nios2eds/bin/gnu/h-i686-mingw32/bin/../lib/gcc/nios2-elf/4.1.2\libgcc.a(_umoddi3.o)
 .debug_pubnames
                0x0000092b       0x2c c:/altera/12.1sp1/nios2eds/bin/gnu/h-i686-mingw32/bin/../lib/gcc/nios2-elf/4.1.2\libgcc.a(_addsub_df.o)
 .debug_pubnames
                0x00000957       0x1f c:/altera/12.1sp1/nios2eds/bin/gnu/h-i686-mingw32/bin/../lib/gcc/nios2-elf/4.1.2\libgcc.a(_mul_df.o)
 .debug_pubnames
                0x00000976       0x1f c:/altera/12.1sp1/nios2eds/bin/gnu/h-i686-mingw32/bin/../lib/gcc/nios2-elf/4.1.2\libgcc.a(_div_df.o)
 .debug_pubnames
                0x00000995       0x1e c:/altera/12.1sp1/nios2eds/bin/gnu/h-i686-mingw32/bin/../lib/gcc/nios2-elf/4.1.2\libgcc.a(_eq_df.o)
 .debug_pubnames
                0x000009b3       0x1e c:/altera/12.1sp1/nios2eds/bin/gnu/h-i686-mingw32/bin/../lib/gcc/nios2-elf/4.1.2\libgcc.a(_ne_df.o)
 .debug_pubnames
                0x000009d1       0x1e c:/altera/12.1sp1/nios2eds/bin/gnu/h-i686-mingw32/bin/../lib/gcc/nios2-elf/4.1.2\libgcc.a(_gt_df.o)
 .debug_pubnames
                0x000009ef       0x1e c:/altera/12.1sp1/nios2eds/bin/gnu/h-i686-mingw32/bin/../lib/gcc/nios2-elf/4.1.2\libgcc.a(_ge_df.o)
 .debug_pubnames
                0x00000a0d       0x1e c:/altera/12.1sp1/nios2eds/bin/gnu/h-i686-mingw32/bin/../lib/gcc/nios2-elf/4.1.2\libgcc.a(_lt_df.o)
 .debug_pubnames
                0x00000a2b       0x22 c:/altera/12.1sp1/nios2eds/bin/gnu/h-i686-mingw32/bin/../lib/gcc/nios2-elf/4.1.2\libgcc.a(_si_to_df.o)
 .debug_pubnames
                0x00000a4d       0x20 c:/altera/12.1sp1/nios2eds/bin/gnu/h-i686-mingw32/bin/../lib/gcc/nios2-elf/4.1.2\libgcc.a(_df_to_si.o)
 .debug_pubnames
                0x00000a6d       0x22 c:/altera/12.1sp1/nios2eds/bin/gnu/h-i686-mingw32/bin/../lib/gcc/nios2-elf/4.1.2\libgcc.a(_thenan_df.o)
 .debug_pubnames
                0x00000a8f       0x24 c:/altera/12.1sp1/nios2eds/bin/gnu/h-i686-mingw32/bin/../lib/gcc/nios2-elf/4.1.2\libgcc.a(_usi_to_df.o)
 .debug_pubnames
                0x00000ab3       0x1f c:/altera/12.1sp1/nios2eds/bin/gnu/h-i686-mingw32/bin/../lib/gcc/nios2-elf/4.1.2\libgcc.a(_muldi3.o)
 .debug_pubnames
                0x00000ad2       0x20 c:/altera/12.1sp1/nios2eds/bin/gnu/h-i686-mingw32/bin/../lib/gcc/nios2-elf/4.1.2\libgcc.a(_clz.o)
 .debug_pubnames
                0x00000af2       0x1f c:/altera/12.1sp1/nios2eds/bin/gnu/h-i686-mingw32/bin/../lib/gcc/nios2-elf/4.1.2\libgcc.a(_clzsi2.o)
 .debug_pubnames
                0x00000b11       0x1f c:/altera/12.1sp1/nios2eds/bin/gnu/h-i686-mingw32/bin/../lib/gcc/nios2-elf/4.1.2\libgcc.a(_pack_df.o)
 .debug_pubnames
                0x00000b30       0x21 c:/altera/12.1sp1/nios2eds/bin/gnu/h-i686-mingw32/bin/../lib/gcc/nios2-elf/4.1.2\libgcc.a(_unpack_df.o)
 .debug_pubnames
                0x00000b51       0x26 c:/altera/12.1sp1/nios2eds/bin/gnu/h-i686-mingw32/bin/../lib/gcc/nios2-elf/4.1.2\libgcc.a(_fpcmp_parts_df.o)
 .debug_pubnames
                0x00000b77       0x1c ../SynthUnitTest_bsp/\libucosii_bsp.a(alt_close.o)
 .debug_pubnames
                0x00000b93       0x78 ../SynthUnitTest_bsp/\libucosii_bsp.a(alt_dev.o)
 .debug_pubnames
                0x00000c0b       0x20 ../SynthUnitTest_bsp/\libucosii_bsp.a(alt_errno.o)
 .debug_pubnames
                0x00000c2b       0x1c ../SynthUnitTest_bsp/\libucosii_bsp.a(alt_fstat.o)
 .debug_pubnames
                0x00000c47       0x1d ../SynthUnitTest_bsp/\libucosii_bsp.a(alt_isatty.o)
 .debug_pubnames
                0x00000c64       0x1f ../SynthUnitTest_bsp/\libucosii_bsp.a(alt_load.o)
 .debug_pubnames
                0x00000c83       0x1c ../SynthUnitTest_bsp/\libucosii_bsp.a(alt_lseek.o)
 .debug_pubnames
                0x00000c9f       0x46 ../SynthUnitTest_bsp/\libucosii_bsp.a(alt_main.o)
 .debug_pubnames
                0x00000ce5       0x1b ../SynthUnitTest_bsp/\libucosii_bsp.a(alt_read.o)
 .debug_pubnames
                0x00000d00       0x25 ../SynthUnitTest_bsp/\libucosii_bsp.a(alt_release_fd.o)
 .debug_pubnames
                0x00000d25       0x1b ../SynthUnitTest_bsp/\libucosii_bsp.a(alt_sbrk.o)
 .debug_pubnames
                0x00000d40       0x1c ../SynthUnitTest_bsp/\libucosii_bsp.a(alt_write.o)
 .debug_pubnames
                0x00000d5c       0x41 ../SynthUnitTest_bsp/\libucosii_bsp.a(alt_env_lock.o)
 .debug_pubnames
                0x00000d9d       0x48 ../SynthUnitTest_bsp/\libucosii_bsp.a(alt_malloc_lock.o)
 .debug_pubnames
                0x00000de5      0x3f8 ../SynthUnitTest_bsp/\libucosii_bsp.a(os_core.o)
 .debug_pubnames
                0x000011dd      0x3c5 ../SynthUnitTest_bsp/\libucosii_bsp.a(os_dbg.o)
 .debug_pubnames
                0x000015a2       0xd0 ../SynthUnitTest_bsp/\libucosii_bsp.a(os_flag.o)
 .debug_pubnames
                0x00001672       0x7c ../SynthUnitTest_bsp/\libucosii_bsp.a(os_mem.o)
 .debug_pubnames
                0x000016ee       0xa9 ../SynthUnitTest_bsp/\libucosii_bsp.a(os_q.o)
 .debug_pubnames
                0x00001797       0x8a ../SynthUnitTest_bsp/\libucosii_bsp.a(os_sem.o)
 .debug_pubnames
                0x00001821       0xe5 ../SynthUnitTest_bsp/\libucosii_bsp.a(os_task.o)
 .debug_pubnames
                0x00001906       0x62 ../SynthUnitTest_bsp/\libucosii_bsp.a(os_time.o)
 .debug_pubnames
                0x00001968       0x34 ../SynthUnitTest_bsp/\libucosii_bsp.a(alt_sys_init.o)
 .debug_pubnames
                0x0000199c      0x278 ../SynthUnitTest_bsp/\libucosii_bsp.a(altera_avalon_fifo_util.o)
 .debug_pubnames
                0x00001c14       0xa5 ../SynthUnitTest_bsp/\libucosii_bsp.a(altera_avalon_jtag_uart_fd.o)
 .debug_pubnames
                0x00001cb9       0x55 ../SynthUnitTest_bsp/\libucosii_bsp.a(altera_avalon_jtag_uart_init.o)
 .debug_pubnames
                0x00001d0e       0x34 ../SynthUnitTest_bsp/\libucosii_bsp.a(altera_avalon_jtag_uart_ioctl.o)
 .debug_pubnames
                0x00001d42       0x33 ../SynthUnitTest_bsp/\libucosii_bsp.a(altera_avalon_jtag_uart_read.o)
 .debug_pubnames
                0x00001d75       0x34 ../SynthUnitTest_bsp/\libucosii_bsp.a(altera_avalon_jtag_uart_write.o)
 .debug_pubnames
                0x00001da9       0x2f ../SynthUnitTest_bsp/\libucosii_bsp.a(altera_avalon_timer_sc.o)
 .debug_pubnames
                0x00001dd8      0x1cd ../SynthUnitTest_bsp/\libucosii_bsp.a(altera_up_avalon_character_lcd.o)
 .debug_pubnames
                0x00001fa5       0x26 ../SynthUnitTest_bsp/\libucosii_bsp.a(alt_alarm_start.o)
 .debug_pubnames
                0x00001fcb       0x2b ../SynthUnitTest_bsp/\libucosii_bsp.a(alt_dcache_flush_all.o)
 .debug_pubnames
                0x00001ff6       0x2b ../SynthUnitTest_bsp/\libucosii_bsp.a(alt_dev_llist_insert.o)
 .debug_pubnames
                0x00002021       0x20 ../SynthUnitTest_bsp/\libucosii_bsp.a(alt_do_ctors.o)
 .debug_pubnames
                0x00002041       0x20 ../SynthUnitTest_bsp/\libucosii_bsp.a(alt_do_dtors.o)
 .debug_pubnames
                0x00002061       0x23 ../SynthUnitTest_bsp/\libucosii_bsp.a(alt_find_dev.o)
 .debug_pubnames
                0x00002084       0x2b ../SynthUnitTest_bsp/\libucosii_bsp.a(alt_icache_flush_all.o)
 .debug_pubnames
                0x000020af       0x6e ../SynthUnitTest_bsp/\libucosii_bsp.a(alt_iic.o)
 .debug_pubnames
                0x0000211d       0x2b ../SynthUnitTest_bsp/\libucosii_bsp.a(alt_iic_isr_register.o)
 .debug_pubnames
                0x00002148       0x26 ../SynthUnitTest_bsp/\libucosii_bsp.a(alt_io_redirect.o)
 .debug_pubnames
                0x0000216e       0x32 ../SynthUnitTest_bsp/\libucosii_bsp.a(alt_irq_handler.o)
 .debug_pubnames
                0x000021a0       0x3b ../SynthUnitTest_bsp/\libucosii_bsp.a(alt_irq_vars.o)
 .debug_pubnames
                0x000021db       0x1b ../SynthUnitTest_bsp/\libucosii_bsp.a(alt_open.o)
 .debug_pubnames
                0x000021f6       0x68 ../SynthUnitTest_bsp/\libucosii_bsp.a(alt_tick.o)
 .debug_pubnames
                0x0000225e       0x31 ../SynthUnitTest_bsp/\libucosii_bsp.a(altera_nios2_qsys_irq.o)
 .debug_pubnames
                0x0000228f       0xcd ../SynthUnitTest_bsp/\libucosii_bsp.a(os_cpu_c.o)
 .debug_pubnames
                0x0000235c       0x24 ../SynthUnitTest_bsp/\libucosii_bsp.a(alt_find_file.o)
 .debug_pubnames
                0x00002380       0x21 ../SynthUnitTest_bsp/\libucosii_bsp.a(alt_get_fd.o)
 .debug_pubnames
                0x000023a1       0x27 ../SynthUnitTest_bsp/\libucosii_bsp.a(alt_icache_flush.o)
 .debug_pubnames
                0x000023c8       0x2a c:/altera/12.1sp1/nios2eds/bin/gnu/h-i686-mingw32/bin/../lib/gcc/nios2-elf/4.1.2/../../../../nios2-elf/lib\libc.a(lib_a-atexit.o)
 .debug_pubnames
                0x000023f2       0x1b c:/altera/12.1sp1/nios2eds/bin/gnu/h-i686-mingw32/bin/../lib/gcc/nios2-elf/4.1.2/../../../../nios2-elf/lib\libc.a(lib_a-exit.o)
 .debug_pubnames
                0x0000240d       0x1d c:/altera/12.1sp1/nios2eds/bin/gnu/h-i686-mingw32/bin/../lib/gcc/nios2-elf/4.1.2/../../../../nios2-elf/lib\libc.a(lib_a-memcmp.o)
 .debug_pubnames
                0x0000242a       0x2a c:/altera/12.1sp1/nios2eds/bin/gnu/h-i686-mingw32/bin/../lib/gcc/nios2-elf/4.1.2/../../../../nios2-elf/lib\libc.a(lib_a-__atexit.o)
 .debug_pubnames
                0x00002454       0x27 c:/altera/12.1sp1/nios2eds/bin/gnu/h-i686-mingw32/bin/../lib/gcc/nios2-elf/4.1.2/../../../../nios2-elf/lib\libc.a(lib_a-__call_atexit.o)
 .debug_pubnames
                0x0000247b       0x1c ../SynthUnitTest_bsp/\libucosii_bsp.a(alt_exit.o)

.debug_info     0x00000000    0x314e3
 *(.debug_info .gnu.linkonce.wi.*)
 .debug_info    0x00000000       0x75 ../SynthUnitTest_bsp//obj/HAL/src/crt0.o
 .debug_info    0x00000075      0x22e obj/default/hello_ucosii.o
 .debug_info    0x000002a3      0x21c c:/altera/12.1sp1/nios2eds/bin/gnu/h-i686-mingw32/bin/../lib/gcc/nios2-elf/4.1.2\libgcc.a(lib2-divmod.o)
 .debug_info    0x000004bf      0x9d1 c:/altera/12.1sp1/nios2eds/bin/gnu/h-i686-mingw32/bin/../lib/gcc/nios2-elf/4.1.2/../../../../nios2-elf/lib\libc.a(lib_a-printf.o)
 .debug_info    0x00000e90      0x972 c:/altera/12.1sp1/nios2eds/bin/gnu/h-i686-mingw32/bin/../lib/gcc/nios2-elf/4.1.2/../../../../nios2-elf/lib\libc.a(lib_a-putchar.o)
 .debug_info    0x00001802     0x10d5 c:/altera/12.1sp1/nios2eds/bin/gnu/h-i686-mingw32/bin/../lib/gcc/nios2-elf/4.1.2/../../../../nios2-elf/lib\libc.a(lib_a-vfprintf.o)
 .debug_info    0x000028d7      0x95d c:/altera/12.1sp1/nios2eds/bin/gnu/h-i686-mingw32/bin/../lib/gcc/nios2-elf/4.1.2/../../../../nios2-elf/lib\libc.a(lib_a-wsetup.o)
 .debug_info    0x00003234      0xd6f c:/altera/12.1sp1/nios2eds/bin/gnu/h-i686-mingw32/bin/../lib/gcc/nios2-elf/4.1.2/../../../../nios2-elf/lib\libc.a(lib_a-dtoa.o)
 .debug_info    0x00003fa3      0x9fe c:/altera/12.1sp1/nios2eds/bin/gnu/h-i686-mingw32/bin/../lib/gcc/nios2-elf/4.1.2/../../../../nios2-elf/lib\libc.a(lib_a-fflush.o)
 .debug_info    0x000049a1      0xb72 c:/altera/12.1sp1/nios2eds/bin/gnu/h-i686-mingw32/bin/../lib/gcc/nios2-elf/4.1.2/../../../../nios2-elf/lib\libc.a(lib_a-findfp.o)
 .debug_info    0x00005513      0xbc9 c:/altera/12.1sp1/nios2eds/bin/gnu/h-i686-mingw32/bin/../lib/gcc/nios2-elf/4.1.2/../../../../nios2-elf/lib\libc.a(lib_a-freer.o)
 .debug_info    0x000060dc      0xa88 c:/altera/12.1sp1/nios2eds/bin/gnu/h-i686-mingw32/bin/../lib/gcc/nios2-elf/4.1.2/../../../../nios2-elf/lib\libc.a(lib_a-fvwrite.o)
 .debug_info    0x00006b64      0xaed c:/altera/12.1sp1/nios2eds/bin/gnu/h-i686-mingw32/bin/../lib/gcc/nios2-elf/4.1.2/../../../../nios2-elf/lib\libc.a(lib_a-fwalk.o)
 .debug_info    0x00007651      0x93d c:/altera/12.1sp1/nios2eds/bin/gnu/h-i686-mingw32/bin/../lib/gcc/nios2-elf/4.1.2/../../../../nios2-elf/lib\libc.a(lib_a-impure.o)
 .debug_info    0x00007f8e      0xb97 c:/altera/12.1sp1/nios2eds/bin/gnu/h-i686-mingw32/bin/../lib/gcc/nios2-elf/4.1.2/../../../../nios2-elf/lib\libc.a(lib_a-locale.o)
 .debug_info    0x00008b25      0xb1a c:/altera/12.1sp1/nios2eds/bin/gnu/h-i686-mingw32/bin/../lib/gcc/nios2-elf/4.1.2/../../../../nios2-elf/lib\libc.a(lib_a-makebuf.o)
 .debug_info    0x0000963f      0xcd0 c:/altera/12.1sp1/nios2eds/bin/gnu/h-i686-mingw32/bin/../lib/gcc/nios2-elf/4.1.2/../../../../nios2-elf/lib\libc.a(lib_a-mallocr.o)
 .debug_info    0x0000a30f      0x138 c:/altera/12.1sp1/nios2eds/bin/gnu/h-i686-mingw32/bin/../lib/gcc/nios2-elf/4.1.2/../../../../nios2-elf/lib\libc.a(lib_a-memchr.o)
 .debug_info    0x0000a447      0x106 c:/altera/12.1sp1/nios2eds/bin/gnu/h-i686-mingw32/bin/../lib/gcc/nios2-elf/4.1.2/../../../../nios2-elf/lib\libc.a(lib_a-memcpy.o)
 .debug_info    0x0000a54d      0x13e c:/altera/12.1sp1/nios2eds/bin/gnu/h-i686-mingw32/bin/../lib/gcc/nios2-elf/4.1.2/../../../../nios2-elf/lib\libc.a(lib_a-memmove.o)
 .debug_info    0x0000a68b      0x113 c:/altera/12.1sp1/nios2eds/bin/gnu/h-i686-mingw32/bin/../lib/gcc/nios2-elf/4.1.2/../../../../nios2-elf/lib\libc.a(lib_a-memset.o)
 .debug_info    0x0000a79e     0x1437 c:/altera/12.1sp1/nios2eds/bin/gnu/h-i686-mingw32/bin/../lib/gcc/nios2-elf/4.1.2/../../../../nios2-elf/lib\libc.a(lib_a-mprec.o)
 .debug_info    0x0000bbd5      0x9c1 c:/altera/12.1sp1/nios2eds/bin/gnu/h-i686-mingw32/bin/../lib/gcc/nios2-elf/4.1.2/../../../../nios2-elf/lib\libc.a(lib_a-putc.o)
 .debug_info    0x0000c596      0xbd7 c:/altera/12.1sp1/nios2eds/bin/gnu/h-i686-mingw32/bin/../lib/gcc/nios2-elf/4.1.2/../../../../nios2-elf/lib\libc.a(lib_a-reallocr.o)
 .debug_info    0x0000d16d       0xd7 c:/altera/12.1sp1/nios2eds/bin/gnu/h-i686-mingw32/bin/../lib/gcc/nios2-elf/4.1.2/../../../../nios2-elf/lib\libc.a(lib_a-s_isinfd.o)
 .debug_info    0x0000d244       0xd5 c:/altera/12.1sp1/nios2eds/bin/gnu/h-i686-mingw32/bin/../lib/gcc/nios2-elf/4.1.2/../../../../nios2-elf/lib\libc.a(lib_a-s_isnand.o)
 .debug_info    0x0000d319      0x962 c:/altera/12.1sp1/nios2eds/bin/gnu/h-i686-mingw32/bin/../lib/gcc/nios2-elf/4.1.2/../../../../nios2-elf/lib\libc.a(lib_a-sbrkr.o)
 .debug_info    0x0000dc7b      0xaac c:/altera/12.1sp1/nios2eds/bin/gnu/h-i686-mingw32/bin/../lib/gcc/nios2-elf/4.1.2/../../../../nios2-elf/lib\libc.a(lib_a-stdio.o)
 .debug_info    0x0000e727       0xdd c:/altera/12.1sp1/nios2eds/bin/gnu/h-i686-mingw32/bin/../lib/gcc/nios2-elf/4.1.2/../../../../nios2-elf/lib\libc.a(lib_a-strcmp.o)
 .debug_info    0x0000e804       0xdb c:/altera/12.1sp1/nios2eds/bin/gnu/h-i686-mingw32/bin/../lib/gcc/nios2-elf/4.1.2/../../../../nios2-elf/lib\libc.a(lib_a-strlen.o)
 .debug_info    0x0000e8df      0x9ae c:/altera/12.1sp1/nios2eds/bin/gnu/h-i686-mingw32/bin/../lib/gcc/nios2-elf/4.1.2/../../../../nios2-elf/lib\libc.a(lib_a-wbuf.o)
 .debug_info    0x0000f28d      0x993 c:/altera/12.1sp1/nios2eds/bin/gnu/h-i686-mingw32/bin/../lib/gcc/nios2-elf/4.1.2/../../../../nios2-elf/lib\libc.a(lib_a-writer.o)
 .debug_info    0x0000fc20      0xa1b c:/altera/12.1sp1/nios2eds/bin/gnu/h-i686-mingw32/bin/../lib/gcc/nios2-elf/4.1.2/../../../../nios2-elf/lib\libc.a(lib_a-callocr.o)
 .debug_info    0x0001063b      0x958 c:/altera/12.1sp1/nios2eds/bin/gnu/h-i686-mingw32/bin/../lib/gcc/nios2-elf/4.1.2/../../../../nios2-elf/lib\libc.a(lib_a-closer.o)
 .debug_info    0x00010f93      0x994 c:/altera/12.1sp1/nios2eds/bin/gnu/h-i686-mingw32/bin/../lib/gcc/nios2-elf/4.1.2/../../../../nios2-elf/lib\libc.a(lib_a-fclose.o)
 .debug_info    0x00011927      0xafc c:/altera/12.1sp1/nios2eds/bin/gnu/h-i686-mingw32/bin/../lib/gcc/nios2-elf/4.1.2/../../../../nios2-elf/lib\libc.a(lib_a-fstatr.o)
 .debug_info    0x00012423       0x8c c:/altera/12.1sp1/nios2eds/bin/gnu/h-i686-mingw32/bin/../lib/gcc/nios2-elf/4.1.2/../../../../nios2-elf/lib\libc.a(lib_a-int_errno.o)
 .debug_info    0x000124af      0x958 c:/altera/12.1sp1/nios2eds/bin/gnu/h-i686-mingw32/bin/../lib/gcc/nios2-elf/4.1.2/../../../../nios2-elf/lib\libc.a(lib_a-isattyr.o)
 .debug_info    0x00012e07      0x981 c:/altera/12.1sp1/nios2eds/bin/gnu/h-i686-mingw32/bin/../lib/gcc/nios2-elf/4.1.2/../../../../nios2-elf/lib\libc.a(lib_a-lseekr.o)
 .debug_info    0x00013788      0x98c c:/altera/12.1sp1/nios2eds/bin/gnu/h-i686-mingw32/bin/../lib/gcc/nios2-elf/4.1.2/../../../../nios2-elf/lib\libc.a(lib_a-readr.o)
 .debug_info    0x00014114      0x724 c:/altera/12.1sp1/nios2eds/bin/gnu/h-i686-mingw32/bin/../lib/gcc/nios2-elf/4.1.2\libgcc.a(_udivdi3.o)
 .debug_info    0x00014838      0x751 c:/altera/12.1sp1/nios2eds/bin/gnu/h-i686-mingw32/bin/../lib/gcc/nios2-elf/4.1.2\libgcc.a(_umoddi3.o)
 .debug_info    0x00014f89      0x493 c:/altera/12.1sp1/nios2eds/bin/gnu/h-i686-mingw32/bin/../lib/gcc/nios2-elf/4.1.2\libgcc.a(_addsub_df.o)
 .debug_info    0x0001541c      0x488 c:/altera/12.1sp1/nios2eds/bin/gnu/h-i686-mingw32/bin/../lib/gcc/nios2-elf/4.1.2\libgcc.a(_mul_df.o)
 .debug_info    0x000158a4      0x39b c:/altera/12.1sp1/nios2eds/bin/gnu/h-i686-mingw32/bin/../lib/gcc/nios2-elf/4.1.2\libgcc.a(_div_df.o)
 .debug_info    0x00015c3f      0x29d c:/altera/12.1sp1/nios2eds/bin/gnu/h-i686-mingw32/bin/../lib/gcc/nios2-elf/4.1.2\libgcc.a(_eq_df.o)
 .debug_info    0x00015edc      0x29d c:/altera/12.1sp1/nios2eds/bin/gnu/h-i686-mingw32/bin/../lib/gcc/nios2-elf/4.1.2\libgcc.a(_ne_df.o)
 .debug_info    0x00016179      0x29d c:/altera/12.1sp1/nios2eds/bin/gnu/h-i686-mingw32/bin/../lib/gcc/nios2-elf/4.1.2\libgcc.a(_gt_df.o)
 .debug_info    0x00016416      0x29d c:/altera/12.1sp1/nios2eds/bin/gnu/h-i686-mingw32/bin/../lib/gcc/nios2-elf/4.1.2\libgcc.a(_ge_df.o)
 .debug_info    0x000166b3      0x29d c:/altera/12.1sp1/nios2eds/bin/gnu/h-i686-mingw32/bin/../lib/gcc/nios2-elf/4.1.2\libgcc.a(_lt_df.o)
 .debug_info    0x00016950      0x218 c:/altera/12.1sp1/nios2eds/bin/gnu/h-i686-mingw32/bin/../lib/gcc/nios2-elf/4.1.2\libgcc.a(_si_to_df.o)
 .debug_info    0x00016b68      0x2cd c:/altera/12.1sp1/nios2eds/bin/gnu/h-i686-mingw32/bin/../lib/gcc/nios2-elf/4.1.2\libgcc.a(_df_to_si.o)
 .debug_info    0x00016e35      0x164 c:/altera/12.1sp1/nios2eds/bin/gnu/h-i686-mingw32/bin/../lib/gcc/nios2-elf/4.1.2\libgcc.a(_thenan_df.o)
 .debug_info    0x00016f99      0x213 c:/altera/12.1sp1/nios2eds/bin/gnu/h-i686-mingw32/bin/../lib/gcc/nios2-elf/4.1.2\libgcc.a(_usi_to_df.o)
 .debug_info    0x000171ac      0x215 c:/altera/12.1sp1/nios2eds/bin/gnu/h-i686-mingw32/bin/../lib/gcc/nios2-elf/4.1.2\libgcc.a(_muldi3.o)
 .debug_info    0x000173c1       0xc9 c:/altera/12.1sp1/nios2eds/bin/gnu/h-i686-mingw32/bin/../lib/gcc/nios2-elf/4.1.2\libgcc.a(_clz.o)
 .debug_info    0x0001748a      0x130 c:/altera/12.1sp1/nios2eds/bin/gnu/h-i686-mingw32/bin/../lib/gcc/nios2-elf/4.1.2\libgcc.a(_clzsi2.o)
 .debug_info    0x000175ba      0x2fc c:/altera/12.1sp1/nios2eds/bin/gnu/h-i686-mingw32/bin/../lib/gcc/nios2-elf/4.1.2\libgcc.a(_pack_df.o)
 .debug_info    0x000178b6      0x268 c:/altera/12.1sp1/nios2eds/bin/gnu/h-i686-mingw32/bin/../lib/gcc/nios2-elf/4.1.2\libgcc.a(_unpack_df.o)
 .debug_info    0x00017b1e      0x21b c:/altera/12.1sp1/nios2eds/bin/gnu/h-i686-mingw32/bin/../lib/gcc/nios2-elf/4.1.2\libgcc.a(_fpcmp_parts_df.o)
 .debug_info    0x00017d39      0x4b5 ../SynthUnitTest_bsp/\libucosii_bsp.a(alt_close.o)
 .debug_info    0x000181ee      0x7d7 ../SynthUnitTest_bsp/\libucosii_bsp.a(alt_dev.o)
 .debug_info    0x000189c5      0x15e ../SynthUnitTest_bsp/\libucosii_bsp.a(alt_errno.o)
 .debug_info    0x00018b23      0x6ae ../SynthUnitTest_bsp/\libucosii_bsp.a(alt_fstat.o)
 .debug_info    0x000191d1      0x6b4 ../SynthUnitTest_bsp/\libucosii_bsp.a(alt_isatty.o)
 .debug_info    0x00019885      0x287 ../SynthUnitTest_bsp/\libucosii_bsp.a(alt_load.o)
 .debug_info    0x00019b0c      0x4e8 ../SynthUnitTest_bsp/\libucosii_bsp.a(alt_lseek.o)
 .debug_info    0x00019ff4      0x3d7 ../SynthUnitTest_bsp/\libucosii_bsp.a(alt_main.o)
 .debug_info    0x0001a3cb      0x6d8 ../SynthUnitTest_bsp/\libucosii_bsp.a(alt_read.o)
 .debug_info    0x0001aaa3      0x449 ../SynthUnitTest_bsp/\libucosii_bsp.a(alt_release_fd.o)
 .debug_info    0x0001aeec      0x2b1 ../SynthUnitTest_bsp/\libucosii_bsp.a(alt_sbrk.o)
 .debug_info    0x0001b19d      0x6e1 ../SynthUnitTest_bsp/\libucosii_bsp.a(alt_write.o)
 .debug_info    0x0001b87e     0x11cd ../SynthUnitTest_bsp/\libucosii_bsp.a(alt_env_lock.o)
 .debug_info    0x0001ca4b     0x1329 ../SynthUnitTest_bsp/\libucosii_bsp.a(alt_malloc_lock.o)
 .debug_info    0x0001dd74     0x1be3 ../SynthUnitTest_bsp/\libucosii_bsp.a(os_core.o)
 .debug_info    0x0001f957     0x1128 ../SynthUnitTest_bsp/\libucosii_bsp.a(os_dbg.o)
 .debug_info    0x00020a7f     0x123e ../SynthUnitTest_bsp/\libucosii_bsp.a(os_flag.o)
 .debug_info    0x00021cbd      0x808 ../SynthUnitTest_bsp/\libucosii_bsp.a(os_mem.o)
 .debug_info    0x000224c5     0x1078 ../SynthUnitTest_bsp/\libucosii_bsp.a(os_q.o)
 .debug_info    0x0002353d      0xce0 ../SynthUnitTest_bsp/\libucosii_bsp.a(os_sem.o)
 .debug_info    0x0002421d     0x1356 ../SynthUnitTest_bsp/\libucosii_bsp.a(os_task.o)
 .debug_info    0x00025573      0x9da ../SynthUnitTest_bsp/\libucosii_bsp.a(os_time.o)
 .debug_info    0x00025f4d      0x967 ../SynthUnitTest_bsp/\libucosii_bsp.a(alt_sys_init.o)
 .debug_info    0x000268b4      0x760 ../SynthUnitTest_bsp/\libucosii_bsp.a(altera_avalon_fifo_util.o)
 .debug_info    0x00027014      0x9cc ../SynthUnitTest_bsp/\libucosii_bsp.a(altera_avalon_jtag_uart_fd.o)
 .debug_info    0x000279e0      0x94a ../SynthUnitTest_bsp/\libucosii_bsp.a(altera_avalon_jtag_uart_init.o)
 .debug_info    0x0002832a      0x636 ../SynthUnitTest_bsp/\libucosii_bsp.a(altera_avalon_jtag_uart_ioctl.o)
 .debug_info    0x00028960      0x7f2 ../SynthUnitTest_bsp/\libucosii_bsp.a(altera_avalon_jtag_uart_read.o)
 .debug_info    0x00029152      0x7e9 ../SynthUnitTest_bsp/\libucosii_bsp.a(altera_avalon_jtag_uart_write.o)
 .debug_info    0x0002993b      0x385 ../SynthUnitTest_bsp/\libucosii_bsp.a(altera_avalon_timer_sc.o)
 .debug_info    0x00029cc0      0x8f6 ../SynthUnitTest_bsp/\libucosii_bsp.a(altera_up_avalon_character_lcd.o)
 .debug_info    0x0002a5b6      0x43c ../SynthUnitTest_bsp/\libucosii_bsp.a(alt_alarm_start.o)
 .debug_info    0x0002a9f2      0x169 ../SynthUnitTest_bsp/\libucosii_bsp.a(alt_dcache_flush_all.o)
 .debug_info    0x0002ab5b      0x2b1 ../SynthUnitTest_bsp/\libucosii_bsp.a(alt_dev_llist_insert.o)
 .debug_info    0x0002ae0c      0x109 ../SynthUnitTest_bsp/\libucosii_bsp.a(alt_do_ctors.o)
 .debug_info    0x0002af15      0x108 ../SynthUnitTest_bsp/\libucosii_bsp.a(alt_do_dtors.o)
 .debug_info    0x0002b01d      0x466 ../SynthUnitTest_bsp/\libucosii_bsp.a(alt_find_dev.o)
 .debug_info    0x0002b483      0x156 ../SynthUnitTest_bsp/\libucosii_bsp.a(alt_icache_flush_all.o)
 .debug_info    0x0002b5d9      0x48d ../SynthUnitTest_bsp/\libucosii_bsp.a(alt_iic.o)
 .debug_info    0x0002ba66      0x30e ../SynthUnitTest_bsp/\libucosii_bsp.a(alt_iic_isr_register.o)
 .debug_info    0x0002bd74      0x6e3 ../SynthUnitTest_bsp/\libucosii_bsp.a(alt_io_redirect.o)
 .debug_info    0x0002c457       0x7e ../SynthUnitTest_bsp/\libucosii_bsp.a(alt_irq_entry.o)
 .debug_info    0x0002c4d5      0x2b4 ../SynthUnitTest_bsp/\libucosii_bsp.a(alt_irq_handler.o)
 .debug_info    0x0002c789      0x161 ../SynthUnitTest_bsp/\libucosii_bsp.a(alt_irq_vars.o)
 .debug_info    0x0002c8ea      0x564 ../SynthUnitTest_bsp/\libucosii_bsp.a(alt_open.o)
 .debug_info    0x0002ce4e      0x40b ../SynthUnitTest_bsp/\libucosii_bsp.a(alt_tick.o)
 .debug_info    0x0002d259      0x15d ../SynthUnitTest_bsp/\libucosii_bsp.a(altera_nios2_qsys_irq.o)
 .debug_info    0x0002d3b6       0x7d ../SynthUnitTest_bsp/\libucosii_bsp.a(os_cpu_a.o)
 .debug_info    0x0002d433     0x12cd ../SynthUnitTest_bsp/\libucosii_bsp.a(os_cpu_c.o)
 .debug_info    0x0002e700       0x84 ../SynthUnitTest_bsp/\libucosii_bsp.a(alt_exception_entry.o)
 .debug_info    0x0002e784      0x46d ../SynthUnitTest_bsp/\libucosii_bsp.a(alt_find_file.o)
 .debug_info    0x0002ebf1      0x5ff ../SynthUnitTest_bsp/\libucosii_bsp.a(alt_get_fd.o)
 .debug_info    0x0002f1f0      0x19e ../SynthUnitTest_bsp/\libucosii_bsp.a(alt_icache_flush.o)
 .debug_info    0x0002f38e      0x181 c:/altera/12.1sp1/nios2eds/bin/gnu/h-i686-mingw32/bin/../lib/gcc/nios2-elf/4.1.2/../../../../nios2-elf/lib\libc.a(lib_a-atexit.o)
 .debug_info    0x0002f50f      0x93f c:/altera/12.1sp1/nios2eds/bin/gnu/h-i686-mingw32/bin/../lib/gcc/nios2-elf/4.1.2/../../../../nios2-elf/lib\libc.a(lib_a-exit.o)
 .debug_info    0x0002fe4e      0x115 c:/altera/12.1sp1/nios2eds/bin/gnu/h-i686-mingw32/bin/../lib/gcc/nios2-elf/4.1.2/../../../../nios2-elf/lib\libc.a(lib_a-memcmp.o)
 .debug_info    0x0002ff63      0x99c c:/altera/12.1sp1/nios2eds/bin/gnu/h-i686-mingw32/bin/../lib/gcc/nios2-elf/4.1.2/../../../../nios2-elf/lib\libc.a(lib_a-__atexit.o)
 .debug_info    0x000308ff      0x9e2 c:/altera/12.1sp1/nios2eds/bin/gnu/h-i686-mingw32/bin/../lib/gcc/nios2-elf/4.1.2/../../../../nios2-elf/lib\libc.a(lib_a-__call_atexit.o)
 .debug_info    0x000312e1      0x202 ../SynthUnitTest_bsp/\libucosii_bsp.a(alt_exit.o)

.debug_abbrev   0x00000000     0x964d
 *(.debug_abbrev)
 .debug_abbrev  0x00000000       0x12 ../SynthUnitTest_bsp//obj/HAL/src/crt0.o
 .debug_abbrev  0x00000012       0xc5 obj/default/hello_ucosii.o
 .debug_abbrev  0x000000d7       0xe0 c:/altera/12.1sp1/nios2eds/bin/gnu/h-i686-mingw32/bin/../lib/gcc/nios2-elf/4.1.2\libgcc.a(lib2-divmod.o)
 .debug_abbrev  0x000001b7      0x191 c:/altera/12.1sp1/nios2eds/bin/gnu/h-i686-mingw32/bin/../lib/gcc/nios2-elf/4.1.2/../../../../nios2-elf/lib\libc.a(lib_a-printf.o)
 .debug_abbrev  0x00000348      0x170 c:/altera/12.1sp1/nios2eds/bin/gnu/h-i686-mingw32/bin/../lib/gcc/nios2-elf/4.1.2/../../../../nios2-elf/lib\libc.a(lib_a-putchar.o)
 .debug_abbrev  0x000004b8      0x30a c:/altera/12.1sp1/nios2eds/bin/gnu/h-i686-mingw32/bin/../lib/gcc/nios2-elf/4.1.2/../../../../nios2-elf/lib\libc.a(lib_a-vfprintf.o)
 .debug_abbrev  0x000007c2      0x170 c:/altera/12.1sp1/nios2eds/bin/gnu/h-i686-mingw32/bin/../lib/gcc/nios2-elf/4.1.2/../../../../nios2-elf/lib\libc.a(lib_a-wsetup.o)
 .debug_abbrev  0x00000932      0x232 c:/altera/12.1sp1/nios2eds/bin/gnu/h-i686-mingw32/bin/../lib/gcc/nios2-elf/4.1.2/../../../../nios2-elf/lib\libc.a(lib_a-dtoa.o)
 .debug_abbrev  0x00000b64      0x1c6 c:/altera/12.1sp1/nios2eds/bin/gnu/h-i686-mingw32/bin/../lib/gcc/nios2-elf/4.1.2/../../../../nios2-elf/lib\libc.a(lib_a-fflush.o)
 .debug_abbrev  0x00000d2a      0x24c c:/altera/12.1sp1/nios2eds/bin/gnu/h-i686-mingw32/bin/../lib/gcc/nios2-elf/4.1.2/../../../../nios2-elf/lib\libc.a(lib_a-findfp.o)
 .debug_abbrev  0x00000f76      0x1d9 c:/altera/12.1sp1/nios2eds/bin/gnu/h-i686-mingw32/bin/../lib/gcc/nios2-elf/4.1.2/../../../../nios2-elf/lib\libc.a(lib_a-freer.o)
 .debug_abbrev  0x0000114f      0x1a3 c:/altera/12.1sp1/nios2eds/bin/gnu/h-i686-mingw32/bin/../lib/gcc/nios2-elf/4.1.2/../../../../nios2-elf/lib\libc.a(lib_a-fvwrite.o)
 .debug_abbrev  0x000012f2      0x1e3 c:/altera/12.1sp1/nios2eds/bin/gnu/h-i686-mingw32/bin/../lib/gcc/nios2-elf/4.1.2/../../../../nios2-elf/lib\libc.a(lib_a-fwalk.o)
 .debug_abbrev  0x000014d5      0x157 c:/altera/12.1sp1/nios2eds/bin/gnu/h-i686-mingw32/bin/../lib/gcc/nios2-elf/4.1.2/../../../../nios2-elf/lib\libc.a(lib_a-impure.o)
 .debug_abbrev  0x0000162c      0x1ed c:/altera/12.1sp1/nios2eds/bin/gnu/h-i686-mingw32/bin/../lib/gcc/nios2-elf/4.1.2/../../../../nios2-elf/lib\libc.a(lib_a-locale.o)
 .debug_abbrev  0x00001819      0x197 c:/altera/12.1sp1/nios2eds/bin/gnu/h-i686-mingw32/bin/../lib/gcc/nios2-elf/4.1.2/../../../../nios2-elf/lib\libc.a(lib_a-makebuf.o)
 .debug_abbrev  0x000019b0      0x216 c:/altera/12.1sp1/nios2eds/bin/gnu/h-i686-mingw32/bin/../lib/gcc/nios2-elf/4.1.2/../../../../nios2-elf/lib\libc.a(lib_a-mallocr.o)
 .debug_abbrev  0x00001bc6       0xb5 c:/altera/12.1sp1/nios2eds/bin/gnu/h-i686-mingw32/bin/../lib/gcc/nios2-elf/4.1.2/../../../../nios2-elf/lib\libc.a(lib_a-memchr.o)
 .debug_abbrev  0x00001c7b       0xb5 c:/altera/12.1sp1/nios2eds/bin/gnu/h-i686-mingw32/bin/../lib/gcc/nios2-elf/4.1.2/../../../../nios2-elf/lib\libc.a(lib_a-memcpy.o)
 .debug_abbrev  0x00001d30       0xb5 c:/altera/12.1sp1/nios2eds/bin/gnu/h-i686-mingw32/bin/../lib/gcc/nios2-elf/4.1.2/../../../../nios2-elf/lib\libc.a(lib_a-memmove.o)
 .debug_abbrev  0x00001de5       0xb8 c:/altera/12.1sp1/nios2eds/bin/gnu/h-i686-mingw32/bin/../lib/gcc/nios2-elf/4.1.2/../../../../nios2-elf/lib\libc.a(lib_a-memset.o)
 .debug_abbrev  0x00001e9d      0x297 c:/altera/12.1sp1/nios2eds/bin/gnu/h-i686-mingw32/bin/../lib/gcc/nios2-elf/4.1.2/../../../../nios2-elf/lib\libc.a(lib_a-mprec.o)
 .debug_abbrev  0x00002134      0x17f c:/altera/12.1sp1/nios2eds/bin/gnu/h-i686-mingw32/bin/../lib/gcc/nios2-elf/4.1.2/../../../../nios2-elf/lib\libc.a(lib_a-putc.o)
 .debug_abbrev  0x000022b3      0x1c3 c:/altera/12.1sp1/nios2eds/bin/gnu/h-i686-mingw32/bin/../lib/gcc/nios2-elf/4.1.2/../../../../nios2-elf/lib\libc.a(lib_a-reallocr.o)
 .debug_abbrev  0x00002476       0x79 c:/altera/12.1sp1/nios2eds/bin/gnu/h-i686-mingw32/bin/../lib/gcc/nios2-elf/4.1.2/../../../../nios2-elf/lib\libc.a(lib_a-s_isinfd.o)
 .debug_abbrev  0x000024ef       0x79 c:/altera/12.1sp1/nios2eds/bin/gnu/h-i686-mingw32/bin/../lib/gcc/nios2-elf/4.1.2/../../../../nios2-elf/lib\libc.a(lib_a-s_isnand.o)
 .debug_abbrev  0x00002568      0x18c c:/altera/12.1sp1/nios2eds/bin/gnu/h-i686-mingw32/bin/../lib/gcc/nios2-elf/4.1.2/../../../../nios2-elf/lib\libc.a(lib_a-sbrkr.o)
 .debug_abbrev  0x000026f4      0x1c9 c:/altera/12.1sp1/nios2eds/bin/gnu/h-i686-mingw32/bin/../lib/gcc/nios2-elf/4.1.2/../../../../nios2-elf/lib\libc.a(lib_a-stdio.o)
 .debug_abbrev  0x000028bd       0x80 c:/altera/12.1sp1/nios2eds/bin/gnu/h-i686-mingw32/bin/../lib/gcc/nios2-elf/4.1.2/../../../../nios2-elf/lib\libc.a(lib_a-strcmp.o)
 .debug_abbrev  0x0000293d       0x8b c:/altera/12.1sp1/nios2eds/bin/gnu/h-i686-mingw32/bin/../lib/gcc/nios2-elf/4.1.2/../../../../nios2-elf/lib\libc.a(lib_a-strlen.o)
 .debug_abbrev  0x000029c8      0x198 c:/altera/12.1sp1/nios2eds/bin/gnu/h-i686-mingw32/bin/../lib/gcc/nios2-elf/4.1.2/../../../../nios2-elf/lib\libc.a(lib_a-wbuf.o)
 .debug_abbrev  0x00002b60      0x184 c:/altera/12.1sp1/nios2eds/bin/gnu/h-i686-mingw32/bin/../lib/gcc/nios2-elf/4.1.2/../../../../nios2-elf/lib\libc.a(lib_a-writer.o)
 .debug_abbrev  0x00002ce4      0x1b8 c:/altera/12.1sp1/nios2eds/bin/gnu/h-i686-mingw32/bin/../lib/gcc/nios2-elf/4.1.2/../../../../nios2-elf/lib\libc.a(lib_a-callocr.o)
 .debug_abbrev  0x00002e9c      0x17f c:/altera/12.1sp1/nios2eds/bin/gnu/h-i686-mingw32/bin/../lib/gcc/nios2-elf/4.1.2/../../../../nios2-elf/lib\libc.a(lib_a-closer.o)
 .debug_abbrev  0x0000301b      0x1a7 c:/altera/12.1sp1/nios2eds/bin/gnu/h-i686-mingw32/bin/../lib/gcc/nios2-elf/4.1.2/../../../../nios2-elf/lib\libc.a(lib_a-fclose.o)
 .debug_abbrev  0x000031c2      0x18e c:/altera/12.1sp1/nios2eds/bin/gnu/h-i686-mingw32/bin/../lib/gcc/nios2-elf/4.1.2/../../../../nios2-elf/lib\libc.a(lib_a-fstatr.o)
 .debug_abbrev  0x00003350       0x3b c:/altera/12.1sp1/nios2eds/bin/gnu/h-i686-mingw32/bin/../lib/gcc/nios2-elf/4.1.2/../../../../nios2-elf/lib\libc.a(lib_a-int_errno.o)
 .debug_abbrev  0x0000338b      0x17f c:/altera/12.1sp1/nios2eds/bin/gnu/h-i686-mingw32/bin/../lib/gcc/nios2-elf/4.1.2/../../../../nios2-elf/lib\libc.a(lib_a-isattyr.o)
 .debug_abbrev  0x0000350a      0x18e c:/altera/12.1sp1/nios2eds/bin/gnu/h-i686-mingw32/bin/../lib/gcc/nios2-elf/4.1.2/../../../../nios2-elf/lib\libc.a(lib_a-lseekr.o)
 .debug_abbrev  0x00003698      0x17f c:/altera/12.1sp1/nios2eds/bin/gnu/h-i686-mingw32/bin/../lib/gcc/nios2-elf/4.1.2/../../../../nios2-elf/lib\libc.a(lib_a-readr.o)
 .debug_abbrev  0x00003817      0x16b c:/altera/12.1sp1/nios2eds/bin/gnu/h-i686-mingw32/bin/../lib/gcc/nios2-elf/4.1.2\libgcc.a(_udivdi3.o)
 .debug_abbrev  0x00003982      0x18e c:/altera/12.1sp1/nios2eds/bin/gnu/h-i686-mingw32/bin/../lib/gcc/nios2-elf/4.1.2\libgcc.a(_umoddi3.o)
 .debug_abbrev  0x00003b10      0x1d2 c:/altera/12.1sp1/nios2eds/bin/gnu/h-i686-mingw32/bin/../lib/gcc/nios2-elf/4.1.2\libgcc.a(_addsub_df.o)
 .debug_abbrev  0x00003ce2      0x204 c:/altera/12.1sp1/nios2eds/bin/gnu/h-i686-mingw32/bin/../lib/gcc/nios2-elf/4.1.2\libgcc.a(_mul_df.o)
 .debug_abbrev  0x00003ee6      0x1e3 c:/altera/12.1sp1/nios2eds/bin/gnu/h-i686-mingw32/bin/../lib/gcc/nios2-elf/4.1.2\libgcc.a(_div_df.o)
 .debug_abbrev  0x000040c9      0x151 c:/altera/12.1sp1/nios2eds/bin/gnu/h-i686-mingw32/bin/../lib/gcc/nios2-elf/4.1.2\libgcc.a(_eq_df.o)
 .debug_abbrev  0x0000421a      0x151 c:/altera/12.1sp1/nios2eds/bin/gnu/h-i686-mingw32/bin/../lib/gcc/nios2-elf/4.1.2\libgcc.a(_ne_df.o)
 .debug_abbrev  0x0000436b      0x151 c:/altera/12.1sp1/nios2eds/bin/gnu/h-i686-mingw32/bin/../lib/gcc/nios2-elf/4.1.2\libgcc.a(_gt_df.o)
 .debug_abbrev  0x000044bc      0x151 c:/altera/12.1sp1/nios2eds/bin/gnu/h-i686-mingw32/bin/../lib/gcc/nios2-elf/4.1.2\libgcc.a(_ge_df.o)
 .debug_abbrev  0x0000460d      0x151 c:/altera/12.1sp1/nios2eds/bin/gnu/h-i686-mingw32/bin/../lib/gcc/nios2-elf/4.1.2\libgcc.a(_lt_df.o)
 .debug_abbrev  0x0000475e      0x13f c:/altera/12.1sp1/nios2eds/bin/gnu/h-i686-mingw32/bin/../lib/gcc/nios2-elf/4.1.2\libgcc.a(_si_to_df.o)
 .debug_abbrev  0x0000489d      0x176 c:/altera/12.1sp1/nios2eds/bin/gnu/h-i686-mingw32/bin/../lib/gcc/nios2-elf/4.1.2\libgcc.a(_df_to_si.o)
 .debug_abbrev  0x00004a13       0xba c:/altera/12.1sp1/nios2eds/bin/gnu/h-i686-mingw32/bin/../lib/gcc/nios2-elf/4.1.2\libgcc.a(_thenan_df.o)
 .debug_abbrev  0x00004acd      0x155 c:/altera/12.1sp1/nios2eds/bin/gnu/h-i686-mingw32/bin/../lib/gcc/nios2-elf/4.1.2\libgcc.a(_usi_to_df.o)
 .debug_abbrev  0x00004c22       0xee c:/altera/12.1sp1/nios2eds/bin/gnu/h-i686-mingw32/bin/../lib/gcc/nios2-elf/4.1.2\libgcc.a(_muldi3.o)
 .debug_abbrev  0x00004d10       0x61 c:/altera/12.1sp1/nios2eds/bin/gnu/h-i686-mingw32/bin/../lib/gcc/nios2-elf/4.1.2\libgcc.a(_clz.o)
 .debug_abbrev  0x00004d71       0xb9 c:/altera/12.1sp1/nios2eds/bin/gnu/h-i686-mingw32/bin/../lib/gcc/nios2-elf/4.1.2\libgcc.a(_clzsi2.o)
 .debug_abbrev  0x00004e2a      0x1b1 c:/altera/12.1sp1/nios2eds/bin/gnu/h-i686-mingw32/bin/../lib/gcc/nios2-elf/4.1.2\libgcc.a(_pack_df.o)
 .debug_abbrev  0x00004fdb      0x149 c:/altera/12.1sp1/nios2eds/bin/gnu/h-i686-mingw32/bin/../lib/gcc/nios2-elf/4.1.2\libgcc.a(_unpack_df.o)
 .debug_abbrev  0x00005124      0x132 c:/altera/12.1sp1/nios2eds/bin/gnu/h-i686-mingw32/bin/../lib/gcc/nios2-elf/4.1.2\libgcc.a(_fpcmp_parts_df.o)
 .debug_abbrev  0x00005256      0x102 ../SynthUnitTest_bsp/\libucosii_bsp.a(alt_close.o)
 .debug_abbrev  0x00005358      0x10a ../SynthUnitTest_bsp/\libucosii_bsp.a(alt_dev.o)
 .debug_abbrev  0x00005462       0x5e ../SynthUnitTest_bsp/\libucosii_bsp.a(alt_errno.o)
 .debug_abbrev  0x000054c0      0x102 ../SynthUnitTest_bsp/\libucosii_bsp.a(alt_fstat.o)
 .debug_abbrev  0x000055c2      0x102 ../SynthUnitTest_bsp/\libucosii_bsp.a(alt_isatty.o)
 .debug_abbrev  0x000056c4       0x88 ../SynthUnitTest_bsp/\libucosii_bsp.a(alt_load.o)
 .debug_abbrev  0x0000574c      0x102 ../SynthUnitTest_bsp/\libucosii_bsp.a(alt_lseek.o)
 .debug_abbrev  0x0000584e      0x120 ../SynthUnitTest_bsp/\libucosii_bsp.a(alt_main.o)
 .debug_abbrev  0x0000596e      0x102 ../SynthUnitTest_bsp/\libucosii_bsp.a(alt_read.o)
 .debug_abbrev  0x00005a70       0xd3 ../SynthUnitTest_bsp/\libucosii_bsp.a(alt_release_fd.o)
 .debug_abbrev  0x00005b43      0x115 ../SynthUnitTest_bsp/\libucosii_bsp.a(alt_sbrk.o)
 .debug_abbrev  0x00005c58      0x107 ../SynthUnitTest_bsp/\libucosii_bsp.a(alt_write.o)
 .debug_abbrev  0x00005d5f      0x1b3 ../SynthUnitTest_bsp/\libucosii_bsp.a(alt_env_lock.o)
 .debug_abbrev  0x00005f12      0x234 ../SynthUnitTest_bsp/\libucosii_bsp.a(alt_malloc_lock.o)
 .debug_abbrev  0x00006146      0x2aa ../SynthUnitTest_bsp/\libucosii_bsp.a(os_core.o)
 .debug_abbrev  0x000063f0      0x114 ../SynthUnitTest_bsp/\libucosii_bsp.a(os_dbg.o)
 .debug_abbrev  0x00006504      0x21b ../SynthUnitTest_bsp/\libucosii_bsp.a(os_flag.o)
 .debug_abbrev  0x0000671f      0x235 ../SynthUnitTest_bsp/\libucosii_bsp.a(os_mem.o)
 .debug_abbrev  0x00006954      0x20d ../SynthUnitTest_bsp/\libucosii_bsp.a(os_q.o)
 .debug_abbrev  0x00006b61      0x20d ../SynthUnitTest_bsp/\libucosii_bsp.a(os_sem.o)
 .debug_abbrev  0x00006d6e      0x20e ../SynthUnitTest_bsp/\libucosii_bsp.a(os_task.o)
 .debug_abbrev  0x00006f7c      0x1de ../SynthUnitTest_bsp/\libucosii_bsp.a(os_time.o)
 .debug_abbrev  0x0000715a      0x1a3 ../SynthUnitTest_bsp/\libucosii_bsp.a(alt_sys_init.o)
 .debug_abbrev  0x000072fd       0xa0 ../SynthUnitTest_bsp/\libucosii_bsp.a(altera_avalon_fifo_util.o)
 .debug_abbrev  0x0000739d      0x13c ../SynthUnitTest_bsp/\libucosii_bsp.a(altera_avalon_jtag_uart_fd.o)
 .debug_abbrev  0x000074d9      0x21e ../SynthUnitTest_bsp/\libucosii_bsp.a(altera_avalon_jtag_uart_init.o)
 .debug_abbrev  0x000076f7      0x135 ../SynthUnitTest_bsp/\libucosii_bsp.a(altera_avalon_jtag_uart_ioctl.o)
 .debug_abbrev  0x0000782c      0x1ee ../SynthUnitTest_bsp/\libucosii_bsp.a(altera_avalon_jtag_uart_read.o)
 .debug_abbrev  0x00007a1a      0x1ea ../SynthUnitTest_bsp/\libucosii_bsp.a(altera_avalon_jtag_uart_write.o)
 .debug_abbrev  0x00007c04      0x137 ../SynthUnitTest_bsp/\libucosii_bsp.a(altera_avalon_timer_sc.o)
 .debug_abbrev  0x00007d3b      0x127 ../SynthUnitTest_bsp/\libucosii_bsp.a(altera_up_avalon_character_lcd.o)
 .debug_abbrev  0x00007e62      0x172 ../SynthUnitTest_bsp/\libucosii_bsp.a(alt_alarm_start.o)
 .debug_abbrev  0x00007fd4       0x57 ../SynthUnitTest_bsp/\libucosii_bsp.a(alt_dcache_flush_all.o)
 .debug_abbrev  0x0000802b       0xf6 ../SynthUnitTest_bsp/\libucosii_bsp.a(alt_dev_llist_insert.o)
 .debug_abbrev  0x00008121       0x76 ../SynthUnitTest_bsp/\libucosii_bsp.a(alt_do_ctors.o)
 .debug_abbrev  0x00008197       0x76 ../SynthUnitTest_bsp/\libucosii_bsp.a(alt_do_dtors.o)
 .debug_abbrev  0x0000820d       0xd6 ../SynthUnitTest_bsp/\libucosii_bsp.a(alt_find_dev.o)
 .debug_abbrev  0x000082e3       0x3f ../SynthUnitTest_bsp/\libucosii_bsp.a(alt_icache_flush_all.o)
 .debug_abbrev  0x00008322      0x134 ../SynthUnitTest_bsp/\libucosii_bsp.a(alt_iic.o)
 .debug_abbrev  0x00008456      0x14e ../SynthUnitTest_bsp/\libucosii_bsp.a(alt_iic_isr_register.o)
 .debug_abbrev  0x000085a4       0xf7 ../SynthUnitTest_bsp/\libucosii_bsp.a(alt_io_redirect.o)
 .debug_abbrev  0x0000869b       0x12 ../SynthUnitTest_bsp/\libucosii_bsp.a(alt_irq_entry.o)
 .debug_abbrev  0x000086ad      0x124 ../SynthUnitTest_bsp/\libucosii_bsp.a(alt_irq_handler.o)
 .debug_abbrev  0x000087d1       0x44 ../SynthUnitTest_bsp/\libucosii_bsp.a(alt_irq_vars.o)
 .debug_abbrev  0x00008815      0x119 ../SynthUnitTest_bsp/\libucosii_bsp.a(alt_open.o)
 .debug_abbrev  0x0000892e      0x150 ../SynthUnitTest_bsp/\libucosii_bsp.a(alt_tick.o)
 .debug_abbrev  0x00008a7e       0x3f ../SynthUnitTest_bsp/\libucosii_bsp.a(altera_nios2_qsys_irq.o)
 .debug_abbrev  0x00008abd       0x14 ../SynthUnitTest_bsp/\libucosii_bsp.a(os_cpu_a.o)
 .debug_abbrev  0x00008ad1      0x1d0 ../SynthUnitTest_bsp/\libucosii_bsp.a(os_cpu_c.o)
 .debug_abbrev  0x00008ca1       0x12 ../SynthUnitTest_bsp/\libucosii_bsp.a(alt_exception_entry.o)
 .debug_abbrev  0x00008cb3       0xd6 ../SynthUnitTest_bsp/\libucosii_bsp.a(alt_find_file.o)
 .debug_abbrev  0x00008d89      0x173 ../SynthUnitTest_bsp/\libucosii_bsp.a(alt_get_fd.o)
 .debug_abbrev  0x00008efc       0x7a ../SynthUnitTest_bsp/\libucosii_bsp.a(alt_icache_flush.o)
 .debug_abbrev  0x00008f76       0xb7 c:/altera/12.1sp1/nios2eds/bin/gnu/h-i686-mingw32/bin/../lib/gcc/nios2-elf/4.1.2/../../../../nios2-elf/lib\libc.a(lib_a-atexit.o)
 .debug_abbrev  0x0000902d      0x16e c:/altera/12.1sp1/nios2eds/bin/gnu/h-i686-mingw32/bin/../lib/gcc/nios2-elf/4.1.2/../../../../nios2-elf/lib\libc.a(lib_a-exit.o)
 .debug_abbrev  0x0000919b       0x7c c:/altera/12.1sp1/nios2eds/bin/gnu/h-i686-mingw32/bin/../lib/gcc/nios2-elf/4.1.2/../../../../nios2-elf/lib\libc.a(lib_a-memcmp.o)
 .debug_abbrev  0x00009217      0x1ae c:/altera/12.1sp1/nios2eds/bin/gnu/h-i686-mingw32/bin/../lib/gcc/nios2-elf/4.1.2/../../../../nios2-elf/lib\libc.a(lib_a-__atexit.o)
 .debug_abbrev  0x000093c5      0x1de c:/altera/12.1sp1/nios2eds/bin/gnu/h-i686-mingw32/bin/../lib/gcc/nios2-elf/4.1.2/../../../../nios2-elf/lib\libc.a(lib_a-__call_atexit.o)
 .debug_abbrev  0x000095a3       0xaa ../SynthUnitTest_bsp/\libucosii_bsp.a(alt_exit.o)

.debug_line     0x00000000    0x1b99d
 *(.debug_line)
 .debug_line    0x00000000       0x72 ../SynthUnitTest_bsp//obj/HAL/src/crt0.o
 .debug_line    0x00000072      0x300 obj/default/hello_ucosii.o
 .debug_line    0x00000372      0x24f c:/altera/12.1sp1/nios2eds/bin/gnu/h-i686-mingw32/bin/../lib/gcc/nios2-elf/4.1.2\libgcc.a(lib2-divmod.o)
 .debug_line    0x000005c1      0x29b c:/altera/12.1sp1/nios2eds/bin/gnu/h-i686-mingw32/bin/../lib/gcc/nios2-elf/4.1.2/../../../../nios2-elf/lib\libc.a(lib_a-printf.o)
 .debug_line    0x0000085c      0x264 c:/altera/12.1sp1/nios2eds/bin/gnu/h-i686-mingw32/bin/../lib/gcc/nios2-elf/4.1.2/../../../../nios2-elf/lib\libc.a(lib_a-putchar.o)
 .debug_line    0x00000ac0     0x110c c:/altera/12.1sp1/nios2eds/bin/gnu/h-i686-mingw32/bin/../lib/gcc/nios2-elf/4.1.2/../../../../nios2-elf/lib\libc.a(lib_a-vfprintf.o)
 .debug_line    0x00001bcc      0x2f0 c:/altera/12.1sp1/nios2eds/bin/gnu/h-i686-mingw32/bin/../lib/gcc/nios2-elf/4.1.2/../../../../nios2-elf/lib\libc.a(lib_a-wsetup.o)
 .debug_line    0x00001ebc     0x12c6 c:/altera/12.1sp1/nios2eds/bin/gnu/h-i686-mingw32/bin/../lib/gcc/nios2-elf/4.1.2/../../../../nios2-elf/lib\libc.a(lib_a-dtoa.o)
 .debug_line    0x00003182      0x40d c:/altera/12.1sp1/nios2eds/bin/gnu/h-i686-mingw32/bin/../lib/gcc/nios2-elf/4.1.2/../../../../nios2-elf/lib\libc.a(lib_a-fflush.o)
 .debug_line    0x0000358f      0x601 c:/altera/12.1sp1/nios2eds/bin/gnu/h-i686-mingw32/bin/../lib/gcc/nios2-elf/4.1.2/../../../../nios2-elf/lib\libc.a(lib_a-findfp.o)
 .debug_line    0x00003b90      0x5eb c:/altera/12.1sp1/nios2eds/bin/gnu/h-i686-mingw32/bin/../lib/gcc/nios2-elf/4.1.2/../../../../nios2-elf/lib\libc.a(lib_a-freer.o)
 .debug_line    0x0000417b      0x641 c:/altera/12.1sp1/nios2eds/bin/gnu/h-i686-mingw32/bin/../lib/gcc/nios2-elf/4.1.2/../../../../nios2-elf/lib\libc.a(lib_a-fvwrite.o)
 .debug_line    0x000047bc      0x34a c:/altera/12.1sp1/nios2eds/bin/gnu/h-i686-mingw32/bin/../lib/gcc/nios2-elf/4.1.2/../../../../nios2-elf/lib\libc.a(lib_a-fwalk.o)
 .debug_line    0x00004b06      0x22d c:/altera/12.1sp1/nios2eds/bin/gnu/h-i686-mingw32/bin/../lib/gcc/nios2-elf/4.1.2/../../../../nios2-elf/lib\libc.a(lib_a-impure.o)
 .debug_line    0x00004d33      0x2c8 c:/altera/12.1sp1/nios2eds/bin/gnu/h-i686-mingw32/bin/../lib/gcc/nios2-elf/4.1.2/../../../../nios2-elf/lib\libc.a(lib_a-locale.o)
 .debug_line    0x00004ffb      0x3c3 c:/altera/12.1sp1/nios2eds/bin/gnu/h-i686-mingw32/bin/../lib/gcc/nios2-elf/4.1.2/../../../../nios2-elf/lib\libc.a(lib_a-makebuf.o)
 .debug_line    0x000053be      0x80a c:/altera/12.1sp1/nios2eds/bin/gnu/h-i686-mingw32/bin/../lib/gcc/nios2-elf/4.1.2/../../../../nios2-elf/lib\libc.a(lib_a-mallocr.o)
 .debug_line    0x00005bc8      0x303 c:/altera/12.1sp1/nios2eds/bin/gnu/h-i686-mingw32/bin/../lib/gcc/nios2-elf/4.1.2/../../../../nios2-elf/lib\libc.a(lib_a-memchr.o)
 .debug_line    0x00005ecb      0x1ac c:/altera/12.1sp1/nios2eds/bin/gnu/h-i686-mingw32/bin/../lib/gcc/nios2-elf/4.1.2/../../../../nios2-elf/lib\libc.a(lib_a-memcpy.o)
 .debug_line    0x00006077      0x30a c:/altera/12.1sp1/nios2eds/bin/gnu/h-i686-mingw32/bin/../lib/gcc/nios2-elf/4.1.2/../../../../nios2-elf/lib\libc.a(lib_a-memmove.o)
 .debug_line    0x00006381      0x301 c:/altera/12.1sp1/nios2eds/bin/gnu/h-i686-mingw32/bin/../lib/gcc/nios2-elf/4.1.2/../../../../nios2-elf/lib\libc.a(lib_a-memset.o)
 .debug_line    0x00006682     0x1243 c:/altera/12.1sp1/nios2eds/bin/gnu/h-i686-mingw32/bin/../lib/gcc/nios2-elf/4.1.2/../../../../nios2-elf/lib\libc.a(lib_a-mprec.o)
 .debug_line    0x000078c5      0x2c4 c:/altera/12.1sp1/nios2eds/bin/gnu/h-i686-mingw32/bin/../lib/gcc/nios2-elf/4.1.2/../../../../nios2-elf/lib\libc.a(lib_a-putc.o)
 .debug_line    0x00007b89      0x58a c:/altera/12.1sp1/nios2eds/bin/gnu/h-i686-mingw32/bin/../lib/gcc/nios2-elf/4.1.2/../../../../nios2-elf/lib\libc.a(lib_a-reallocr.o)
 .debug_line    0x00008113      0x222 c:/altera/12.1sp1/nios2eds/bin/gnu/h-i686-mingw32/bin/../lib/gcc/nios2-elf/4.1.2/../../../../nios2-elf/lib\libc.a(lib_a-s_isinfd.o)
 .debug_line    0x00008335      0x21a c:/altera/12.1sp1/nios2eds/bin/gnu/h-i686-mingw32/bin/../lib/gcc/nios2-elf/4.1.2/../../../../nios2-elf/lib\libc.a(lib_a-s_isnand.o)
 .debug_line    0x0000854f      0x299 c:/altera/12.1sp1/nios2eds/bin/gnu/h-i686-mingw32/bin/../lib/gcc/nios2-elf/4.1.2/../../../../nios2-elf/lib\libc.a(lib_a-sbrkr.o)
 .debug_line    0x000087e8      0x38c c:/altera/12.1sp1/nios2eds/bin/gnu/h-i686-mingw32/bin/../lib/gcc/nios2-elf/4.1.2/../../../../nios2-elf/lib\libc.a(lib_a-stdio.o)
 .debug_line    0x00008b74      0x2d5 c:/altera/12.1sp1/nios2eds/bin/gnu/h-i686-mingw32/bin/../lib/gcc/nios2-elf/4.1.2/../../../../nios2-elf/lib\libc.a(lib_a-strcmp.o)
 .debug_line    0x00008e49      0x26d c:/altera/12.1sp1/nios2eds/bin/gnu/h-i686-mingw32/bin/../lib/gcc/nios2-elf/4.1.2/../../../../nios2-elf/lib\libc.a(lib_a-strlen.o)
 .debug_line    0x000090b6      0x350 c:/altera/12.1sp1/nios2eds/bin/gnu/h-i686-mingw32/bin/../lib/gcc/nios2-elf/4.1.2/../../../../nios2-elf/lib\libc.a(lib_a-wbuf.o)
 .debug_line    0x00009406      0x29a c:/altera/12.1sp1/nios2eds/bin/gnu/h-i686-mingw32/bin/../lib/gcc/nios2-elf/4.1.2/../../../../nios2-elf/lib\libc.a(lib_a-writer.o)
 .debug_line    0x000096a0      0x25c c:/altera/12.1sp1/nios2eds/bin/gnu/h-i686-mingw32/bin/../lib/gcc/nios2-elf/4.1.2/../../../../nios2-elf/lib\libc.a(lib_a-callocr.o)
 .debug_line    0x000098fc      0x29a c:/altera/12.1sp1/nios2eds/bin/gnu/h-i686-mingw32/bin/../lib/gcc/nios2-elf/4.1.2/../../../../nios2-elf/lib\libc.a(lib_a-closer.o)
 .debug_line    0x00009b96      0x2e8 c:/altera/12.1sp1/nios2eds/bin/gnu/h-i686-mingw32/bin/../lib/gcc/nios2-elf/4.1.2/../../../../nios2-elf/lib\libc.a(lib_a-fclose.o)
 .debug_line    0x00009e7e      0x264 c:/altera/12.1sp1/nios2eds/bin/gnu/h-i686-mingw32/bin/../lib/gcc/nios2-elf/4.1.2/../../../../nios2-elf/lib\libc.a(lib_a-fstatr.o)
 .debug_line    0x0000a0e2      0x1df c:/altera/12.1sp1/nios2eds/bin/gnu/h-i686-mingw32/bin/../lib/gcc/nios2-elf/4.1.2/../../../../nios2-elf/lib\libc.a(lib_a-int_errno.o)
 .debug_line    0x0000a2c1      0x29b c:/altera/12.1sp1/nios2eds/bin/gnu/h-i686-mingw32/bin/../lib/gcc/nios2-elf/4.1.2/../../../../nios2-elf/lib\libc.a(lib_a-isattyr.o)
 .debug_line    0x0000a55c      0x29a c:/altera/12.1sp1/nios2eds/bin/gnu/h-i686-mingw32/bin/../lib/gcc/nios2-elf/4.1.2/../../../../nios2-elf/lib\libc.a(lib_a-lseekr.o)
 .debug_line    0x0000a7f6      0x299 c:/altera/12.1sp1/nios2eds/bin/gnu/h-i686-mingw32/bin/../lib/gcc/nios2-elf/4.1.2/../../../../nios2-elf/lib\libc.a(lib_a-readr.o)
 .debug_line    0x0000aa8f      0x2f2 c:/altera/12.1sp1/nios2eds/bin/gnu/h-i686-mingw32/bin/../lib/gcc/nios2-elf/4.1.2\libgcc.a(_udivdi3.o)
 .debug_line    0x0000ad81      0x37d c:/altera/12.1sp1/nios2eds/bin/gnu/h-i686-mingw32/bin/../lib/gcc/nios2-elf/4.1.2\libgcc.a(_umoddi3.o)
 .debug_line    0x0000b0fe      0x430 c:/altera/12.1sp1/nios2eds/bin/gnu/h-i686-mingw32/bin/../lib/gcc/nios2-elf/4.1.2\libgcc.a(_addsub_df.o)
 .debug_line    0x0000b52e      0x3e5 c:/altera/12.1sp1/nios2eds/bin/gnu/h-i686-mingw32/bin/../lib/gcc/nios2-elf/4.1.2\libgcc.a(_mul_df.o)
 .debug_line    0x0000b913      0x301 c:/altera/12.1sp1/nios2eds/bin/gnu/h-i686-mingw32/bin/../lib/gcc/nios2-elf/4.1.2\libgcc.a(_div_df.o)
 .debug_line    0x0000bc14      0x129 c:/altera/12.1sp1/nios2eds/bin/gnu/h-i686-mingw32/bin/../lib/gcc/nios2-elf/4.1.2\libgcc.a(_eq_df.o)
 .debug_line    0x0000bd3d      0x129 c:/altera/12.1sp1/nios2eds/bin/gnu/h-i686-mingw32/bin/../lib/gcc/nios2-elf/4.1.2\libgcc.a(_ne_df.o)
 .debug_line    0x0000be66      0x129 c:/altera/12.1sp1/nios2eds/bin/gnu/h-i686-mingw32/bin/../lib/gcc/nios2-elf/4.1.2\libgcc.a(_gt_df.o)
 .debug_line    0x0000bf8f      0x129 c:/altera/12.1sp1/nios2eds/bin/gnu/h-i686-mingw32/bin/../lib/gcc/nios2-elf/4.1.2\libgcc.a(_ge_df.o)
 .debug_line    0x0000c0b8      0x129 c:/altera/12.1sp1/nios2eds/bin/gnu/h-i686-mingw32/bin/../lib/gcc/nios2-elf/4.1.2\libgcc.a(_lt_df.o)
 .debug_line    0x0000c1e1      0x175 c:/altera/12.1sp1/nios2eds/bin/gnu/h-i686-mingw32/bin/../lib/gcc/nios2-elf/4.1.2\libgcc.a(_si_to_df.o)
 .debug_line    0x0000c356      0x149 c:/altera/12.1sp1/nios2eds/bin/gnu/h-i686-mingw32/bin/../lib/gcc/nios2-elf/4.1.2\libgcc.a(_df_to_si.o)
 .debug_line    0x0000c49f       0x94 c:/altera/12.1sp1/nios2eds/bin/gnu/h-i686-mingw32/bin/../lib/gcc/nios2-elf/4.1.2\libgcc.a(_thenan_df.o)
 .debug_line    0x0000c533      0x189 c:/altera/12.1sp1/nios2eds/bin/gnu/h-i686-mingw32/bin/../lib/gcc/nios2-elf/4.1.2\libgcc.a(_usi_to_df.o)
 .debug_line    0x0000c6bc      0x11f c:/altera/12.1sp1/nios2eds/bin/gnu/h-i686-mingw32/bin/../lib/gcc/nios2-elf/4.1.2\libgcc.a(_muldi3.o)
 .debug_line    0x0000c7db       0xaa c:/altera/12.1sp1/nios2eds/bin/gnu/h-i686-mingw32/bin/../lib/gcc/nios2-elf/4.1.2\libgcc.a(_clz.o)
 .debug_line    0x0000c885      0x105 c:/altera/12.1sp1/nios2eds/bin/gnu/h-i686-mingw32/bin/../lib/gcc/nios2-elf/4.1.2\libgcc.a(_clzsi2.o)
 .debug_line    0x0000c98a      0x222 c:/altera/12.1sp1/nios2eds/bin/gnu/h-i686-mingw32/bin/../lib/gcc/nios2-elf/4.1.2\libgcc.a(_pack_df.o)
 .debug_line    0x0000cbac      0x1e4 c:/altera/12.1sp1/nios2eds/bin/gnu/h-i686-mingw32/bin/../lib/gcc/nios2-elf/4.1.2\libgcc.a(_unpack_df.o)
 .debug_line    0x0000cd90      0x187 c:/altera/12.1sp1/nios2eds/bin/gnu/h-i686-mingw32/bin/../lib/gcc/nios2-elf/4.1.2\libgcc.a(_fpcmp_parts_df.o)
 .debug_line    0x0000cf17      0x2f9 ../SynthUnitTest_bsp/\libucosii_bsp.a(alt_close.o)
 .debug_line    0x0000d210      0x2ba ../SynthUnitTest_bsp/\libucosii_bsp.a(alt_dev.o)
 .debug_line    0x0000d4ca      0x1aa ../SynthUnitTest_bsp/\libucosii_bsp.a(alt_errno.o)
 .debug_line    0x0000d674      0x301 ../SynthUnitTest_bsp/\libucosii_bsp.a(alt_fstat.o)
 .debug_line    0x0000d975      0x302 ../SynthUnitTest_bsp/\libucosii_bsp.a(alt_isatty.o)
 .debug_line    0x0000dc77      0x217 ../SynthUnitTest_bsp/\libucosii_bsp.a(alt_load.o)
 .debug_line    0x0000de8e      0x301 ../SynthUnitTest_bsp/\libucosii_bsp.a(alt_lseek.o)
 .debug_line    0x0000e18f      0x349 ../SynthUnitTest_bsp/\libucosii_bsp.a(alt_main.o)
 .debug_line    0x0000e4d8      0x328 ../SynthUnitTest_bsp/\libucosii_bsp.a(alt_read.o)
 .debug_line    0x0000e800      0x279 ../SynthUnitTest_bsp/\libucosii_bsp.a(alt_release_fd.o)
 .debug_line    0x0000ea79      0x261 ../SynthUnitTest_bsp/\libucosii_bsp.a(alt_sbrk.o)
 .debug_line    0x0000ecda      0x329 ../SynthUnitTest_bsp/\libucosii_bsp.a(alt_write.o)
 .debug_line    0x0000f003      0x2bf ../SynthUnitTest_bsp/\libucosii_bsp.a(alt_env_lock.o)
 .debug_line    0x0000f2c2      0x37b ../SynthUnitTest_bsp/\libucosii_bsp.a(alt_malloc_lock.o)
 .debug_line    0x0000f63d     0x1663 ../SynthUnitTest_bsp/\libucosii_bsp.a(os_core.o)
 .debug_line    0x00010ca0      0x388 ../SynthUnitTest_bsp/\libucosii_bsp.a(os_dbg.o)
 .debug_line    0x00011028     0x11e7 ../SynthUnitTest_bsp/\libucosii_bsp.a(os_flag.o)
 .debug_line    0x0001220f      0x78a ../SynthUnitTest_bsp/\libucosii_bsp.a(os_mem.o)
 .debug_line    0x00012999      0xe6b ../SynthUnitTest_bsp/\libucosii_bsp.a(os_q.o)
 .debug_line    0x00013804      0xa23 ../SynthUnitTest_bsp/\libucosii_bsp.a(os_sem.o)
 .debug_line    0x00014227     0x112c ../SynthUnitTest_bsp/\libucosii_bsp.a(os_task.o)
 .debug_line    0x00015353      0x52f ../SynthUnitTest_bsp/\libucosii_bsp.a(os_time.o)
 .debug_line    0x00015882      0x325 ../SynthUnitTest_bsp/\libucosii_bsp.a(alt_sys_init.o)
 .debug_line    0x00015ba7      0x46a ../SynthUnitTest_bsp/\libucosii_bsp.a(altera_avalon_fifo_util.o)
 .debug_line    0x00016011      0x319 ../SynthUnitTest_bsp/\libucosii_bsp.a(altera_avalon_jtag_uart_fd.o)
 .debug_line    0x0001632a      0x598 ../SynthUnitTest_bsp/\libucosii_bsp.a(altera_avalon_jtag_uart_init.o)
 .debug_line    0x000168c2      0x356 ../SynthUnitTest_bsp/\libucosii_bsp.a(altera_avalon_jtag_uart_ioctl.o)
 .debug_line    0x00016c18      0x494 ../SynthUnitTest_bsp/\libucosii_bsp.a(altera_avalon_jtag_uart_read.o)
 .debug_line    0x000170ac      0x4a2 ../SynthUnitTest_bsp/\libucosii_bsp.a(altera_avalon_jtag_uart_write.o)
 .debug_line    0x0001754e      0x2b3 ../SynthUnitTest_bsp/\libucosii_bsp.a(altera_avalon_timer_sc.o)
 .debug_line    0x00017801      0x4c5 ../SynthUnitTest_bsp/\libucosii_bsp.a(altera_up_avalon_character_lcd.o)
 .debug_line    0x00017cc6      0x2dc ../SynthUnitTest_bsp/\libucosii_bsp.a(alt_alarm_start.o)
 .debug_line    0x00017fa2      0x1cd ../SynthUnitTest_bsp/\libucosii_bsp.a(alt_dcache_flush_all.o)
 .debug_line    0x0001816f      0x25a ../SynthUnitTest_bsp/\libucosii_bsp.a(alt_dev_llist_insert.o)
 .debug_line    0x000183c9       0x83 ../SynthUnitTest_bsp/\libucosii_bsp.a(alt_do_ctors.o)
 .debug_line    0x0001844c       0x83 ../SynthUnitTest_bsp/\libucosii_bsp.a(alt_do_dtors.o)
 .debug_line    0x000184cf      0x2da ../SynthUnitTest_bsp/\libucosii_bsp.a(alt_find_dev.o)
 .debug_line    0x000187a9      0x1bd ../SynthUnitTest_bsp/\libucosii_bsp.a(alt_icache_flush_all.o)
 .debug_line    0x00018966      0x2c8 ../SynthUnitTest_bsp/\libucosii_bsp.a(alt_iic.o)
 .debug_line    0x00018c2e      0x249 ../SynthUnitTest_bsp/\libucosii_bsp.a(alt_iic_isr_register.o)
 .debug_line    0x00018e77      0x323 ../SynthUnitTest_bsp/\libucosii_bsp.a(alt_io_redirect.o)
 .debug_line    0x0001919a       0x6b ../SynthUnitTest_bsp/\libucosii_bsp.a(alt_irq_entry.o)
 .debug_line    0x00019205      0x2c4 ../SynthUnitTest_bsp/\libucosii_bsp.a(alt_irq_handler.o)
 .debug_line    0x000194c9       0x72 ../SynthUnitTest_bsp/\libucosii_bsp.a(alt_irq_vars.o)
 .debug_line    0x0001953b      0x35f ../SynthUnitTest_bsp/\libucosii_bsp.a(alt_open.o)
 .debug_line    0x0001989a      0x316 ../SynthUnitTest_bsp/\libucosii_bsp.a(alt_tick.o)
 .debug_line    0x00019bb0      0x1ce ../SynthUnitTest_bsp/\libucosii_bsp.a(altera_nios2_qsys_irq.o)
 .debug_line    0x00019d7e       0x86 ../SynthUnitTest_bsp/\libucosii_bsp.a(os_cpu_a.o)
 .debug_line    0x00019e04      0x328 ../SynthUnitTest_bsp/\libucosii_bsp.a(os_cpu_c.o)
 .debug_line    0x0001a12c       0xab ../SynthUnitTest_bsp/\libucosii_bsp.a(alt_exception_entry.o)
 .debug_line    0x0001a1d7      0x2eb ../SynthUnitTest_bsp/\libucosii_bsp.a(alt_find_file.o)
 .debug_line    0x0001a4c2      0x31b ../SynthUnitTest_bsp/\libucosii_bsp.a(alt_get_fd.o)
 .debug_line    0x0001a7dd      0x1f9 ../SynthUnitTest_bsp/\libucosii_bsp.a(alt_icache_flush.o)
 .debug_line    0x0001a9d6      0x200 c:/altera/12.1sp1/nios2eds/bin/gnu/h-i686-mingw32/bin/../lib/gcc/nios2-elf/4.1.2/../../../../nios2-elf/lib\libc.a(lib_a-atexit.o)
 .debug_line    0x0001abd6      0x238 c:/altera/12.1sp1/nios2eds/bin/gnu/h-i686-mingw32/bin/../lib/gcc/nios2-elf/4.1.2/../../../../nios2-elf/lib\libc.a(lib_a-exit.o)
 .debug_line    0x0001ae0e      0x29f c:/altera/12.1sp1/nios2eds/bin/gnu/h-i686-mingw32/bin/../lib/gcc/nios2-elf/4.1.2/../../../../nios2-elf/lib\libc.a(lib_a-memcmp.o)
 .debug_line    0x0001b0ad      0x313 c:/altera/12.1sp1/nios2eds/bin/gnu/h-i686-mingw32/bin/../lib/gcc/nios2-elf/4.1.2/../../../../nios2-elf/lib\libc.a(lib_a-__atexit.o)
 .debug_line    0x0001b3c0      0x367 c:/altera/12.1sp1/nios2eds/bin/gnu/h-i686-mingw32/bin/../lib/gcc/nios2-elf/4.1.2/../../../../nios2-elf/lib\libc.a(lib_a-__call_atexit.o)
 .debug_line    0x0001b727      0x276 ../SynthUnitTest_bsp/\libucosii_bsp.a(alt_exit.o)

.debug_frame    0x00000000     0x2818
 *(.debug_frame)
 .debug_frame   0x00000000       0x48 obj/default/hello_ucosii.o
 .debug_frame   0x00000048       0x70 c:/altera/12.1sp1/nios2eds/bin/gnu/h-i686-mingw32/bin/../lib/gcc/nios2-elf/4.1.2\libgcc.a(lib2-divmod.o)
 .debug_frame   0x000000b8       0x40 c:/altera/12.1sp1/nios2eds/bin/gnu/h-i686-mingw32/bin/../lib/gcc/nios2-elf/4.1.2/../../../../nios2-elf/lib\libc.a(lib_a-printf.o)
 .debug_frame   0x000000f8       0x30 c:/altera/12.1sp1/nios2eds/bin/gnu/h-i686-mingw32/bin/../lib/gcc/nios2-elf/4.1.2/../../../../nios2-elf/lib\libc.a(lib_a-putchar.o)
 .debug_frame   0x00000128       0x64 c:/altera/12.1sp1/nios2eds/bin/gnu/h-i686-mingw32/bin/../lib/gcc/nios2-elf/4.1.2/../../../../nios2-elf/lib\libc.a(lib_a-vfprintf.o)
 .debug_frame   0x0000018c       0x2c c:/altera/12.1sp1/nios2eds/bin/gnu/h-i686-mingw32/bin/../lib/gcc/nios2-elf/4.1.2/../../../../nios2-elf/lib\libc.a(lib_a-wsetup.o)
 .debug_frame   0x000001b8       0x64 c:/altera/12.1sp1/nios2eds/bin/gnu/h-i686-mingw32/bin/../lib/gcc/nios2-elf/4.1.2/../../../../nios2-elf/lib\libc.a(lib_a-dtoa.o)
 .debug_frame   0x0000021c       0x40 c:/altera/12.1sp1/nios2eds/bin/gnu/h-i686-mingw32/bin/../lib/gcc/nios2-elf/4.1.2/../../../../nios2-elf/lib\libc.a(lib_a-fflush.o)
 .debug_frame   0x0000025c      0x118 c:/altera/12.1sp1/nios2eds/bin/gnu/h-i686-mingw32/bin/../lib/gcc/nios2-elf/4.1.2/../../../../nios2-elf/lib\libc.a(lib_a-findfp.o)
 .debug_frame   0x00000374       0x4c c:/altera/12.1sp1/nios2eds/bin/gnu/h-i686-mingw32/bin/../lib/gcc/nios2-elf/4.1.2/../../../../nios2-elf/lib\libc.a(lib_a-freer.o)
 .debug_frame   0x000003c0       0x38 c:/altera/12.1sp1/nios2eds/bin/gnu/h-i686-mingw32/bin/../lib/gcc/nios2-elf/4.1.2/../../../../nios2-elf/lib\libc.a(lib_a-fvwrite.o)
 .debug_frame   0x000003f8       0x60 c:/altera/12.1sp1/nios2eds/bin/gnu/h-i686-mingw32/bin/../lib/gcc/nios2-elf/4.1.2/../../../../nios2-elf/lib\libc.a(lib_a-fwalk.o)
 .debug_frame   0x00000458       0x70 c:/altera/12.1sp1/nios2eds/bin/gnu/h-i686-mingw32/bin/../lib/gcc/nios2-elf/4.1.2/../../../../nios2-elf/lib\libc.a(lib_a-locale.o)
 .debug_frame   0x000004c8       0x2c c:/altera/12.1sp1/nios2eds/bin/gnu/h-i686-mingw32/bin/../lib/gcc/nios2-elf/4.1.2/../../../../nios2-elf/lib\libc.a(lib_a-makebuf.o)
 .debug_frame   0x000004f4       0x38 c:/altera/12.1sp1/nios2eds/bin/gnu/h-i686-mingw32/bin/../lib/gcc/nios2-elf/4.1.2/../../../../nios2-elf/lib\libc.a(lib_a-mallocr.o)
 .debug_frame   0x0000052c       0x20 c:/altera/12.1sp1/nios2eds/bin/gnu/h-i686-mingw32/bin/../lib/gcc/nios2-elf/4.1.2/../../../../nios2-elf/lib\libc.a(lib_a-memchr.o)
 .debug_frame   0x0000054c       0x20 c:/altera/12.1sp1/nios2eds/bin/gnu/h-i686-mingw32/bin/../lib/gcc/nios2-elf/4.1.2/../../../../nios2-elf/lib\libc.a(lib_a-memcpy.o)
 .debug_frame   0x0000056c       0x20 c:/altera/12.1sp1/nios2eds/bin/gnu/h-i686-mingw32/bin/../lib/gcc/nios2-elf/4.1.2/../../../../nios2-elf/lib\libc.a(lib_a-memmove.o)
 .debug_frame   0x0000058c       0x20 c:/altera/12.1sp1/nios2eds/bin/gnu/h-i686-mingw32/bin/../lib/gcc/nios2-elf/4.1.2/../../../../nios2-elf/lib\libc.a(lib_a-memset.o)
 .debug_frame   0x000005ac      0x218 c:/altera/12.1sp1/nios2eds/bin/gnu/h-i686-mingw32/bin/../lib/gcc/nios2-elf/4.1.2/../../../../nios2-elf/lib\libc.a(lib_a-mprec.o)
 .debug_frame   0x000007c4       0x4c c:/altera/12.1sp1/nios2eds/bin/gnu/h-i686-mingw32/bin/../lib/gcc/nios2-elf/4.1.2/../../../../nios2-elf/lib\libc.a(lib_a-putc.o)
 .debug_frame   0x00000810       0x38 c:/altera/12.1sp1/nios2eds/bin/gnu/h-i686-mingw32/bin/../lib/gcc/nios2-elf/4.1.2/../../../../nios2-elf/lib\libc.a(lib_a-reallocr.o)
 .debug_frame   0x00000848       0x20 c:/altera/12.1sp1/nios2eds/bin/gnu/h-i686-mingw32/bin/../lib/gcc/nios2-elf/4.1.2/../../../../nios2-elf/lib\libc.a(lib_a-s_isinfd.o)
 .debug_frame   0x00000868       0x20 c:/altera/12.1sp1/nios2eds/bin/gnu/h-i686-mingw32/bin/../lib/gcc/nios2-elf/4.1.2/../../../../nios2-elf/lib\libc.a(lib_a-s_isnand.o)
 .debug_frame   0x00000888       0x2c c:/altera/12.1sp1/nios2eds/bin/gnu/h-i686-mingw32/bin/../lib/gcc/nios2-elf/4.1.2/../../../../nios2-elf/lib\libc.a(lib_a-sbrkr.o)
 .debug_frame   0x000008b4       0x78 c:/altera/12.1sp1/nios2eds/bin/gnu/h-i686-mingw32/bin/../lib/gcc/nios2-elf/4.1.2/../../../../nios2-elf/lib\libc.a(lib_a-stdio.o)
 .debug_frame   0x0000092c       0x20 c:/altera/12.1sp1/nios2eds/bin/gnu/h-i686-mingw32/bin/../lib/gcc/nios2-elf/4.1.2/../../../../nios2-elf/lib\libc.a(lib_a-strcmp.o)
 .debug_frame   0x0000094c       0x20 c:/altera/12.1sp1/nios2eds/bin/gnu/h-i686-mingw32/bin/../lib/gcc/nios2-elf/4.1.2/../../../../nios2-elf/lib\libc.a(lib_a-strlen.o)
 .debug_frame   0x0000096c       0x3c c:/altera/12.1sp1/nios2eds/bin/gnu/h-i686-mingw32/bin/../lib/gcc/nios2-elf/4.1.2/../../../../nios2-elf/lib\libc.a(lib_a-wbuf.o)
 .debug_frame   0x000009a8       0x2c c:/altera/12.1sp1/nios2eds/bin/gnu/h-i686-mingw32/bin/../lib/gcc/nios2-elf/4.1.2/../../../../nios2-elf/lib\libc.a(lib_a-writer.o)
 .debug_frame   0x000009d4       0x28 c:/altera/12.1sp1/nios2eds/bin/gnu/h-i686-mingw32/bin/../lib/gcc/nios2-elf/4.1.2/../../../../nios2-elf/lib\libc.a(lib_a-callocr.o)
 .debug_frame   0x000009fc       0x2c c:/altera/12.1sp1/nios2eds/bin/gnu/h-i686-mingw32/bin/../lib/gcc/nios2-elf/4.1.2/../../../../nios2-elf/lib\libc.a(lib_a-closer.o)
 .debug_frame   0x00000a28       0x3c c:/altera/12.1sp1/nios2eds/bin/gnu/h-i686-mingw32/bin/../lib/gcc/nios2-elf/4.1.2/../../../../nios2-elf/lib\libc.a(lib_a-fclose.o)
 .debug_frame   0x00000a64       0x2c c:/altera/12.1sp1/nios2eds/bin/gnu/h-i686-mingw32/bin/../lib/gcc/nios2-elf/4.1.2/../../../../nios2-elf/lib\libc.a(lib_a-fstatr.o)
 .debug_frame   0x00000a90       0x2c c:/altera/12.1sp1/nios2eds/bin/gnu/h-i686-mingw32/bin/../lib/gcc/nios2-elf/4.1.2/../../../../nios2-elf/lib\libc.a(lib_a-isattyr.o)
 .debug_frame   0x00000abc       0x2c c:/altera/12.1sp1/nios2eds/bin/gnu/h-i686-mingw32/bin/../lib/gcc/nios2-elf/4.1.2/../../../../nios2-elf/lib\libc.a(lib_a-lseekr.o)
 .debug_frame   0x00000ae8       0x2c c:/altera/12.1sp1/nios2eds/bin/gnu/h-i686-mingw32/bin/../lib/gcc/nios2-elf/4.1.2/../../../../nios2-elf/lib\libc.a(lib_a-readr.o)
 .debug_frame   0x00000b14       0x38 c:/altera/12.1sp1/nios2eds/bin/gnu/h-i686-mingw32/bin/../lib/gcc/nios2-elf/4.1.2\libgcc.a(_udivdi3.o)
 .debug_frame   0x00000b4c       0x38 c:/altera/12.1sp1/nios2eds/bin/gnu/h-i686-mingw32/bin/../lib/gcc/nios2-elf/4.1.2\libgcc.a(_umoddi3.o)
 .debug_frame   0x00000b84       0x70 c:/altera/12.1sp1/nios2eds/bin/gnu/h-i686-mingw32/bin/../lib/gcc/nios2-elf/4.1.2\libgcc.a(_addsub_df.o)
 .debug_frame   0x00000bf4       0x3c c:/altera/12.1sp1/nios2eds/bin/gnu/h-i686-mingw32/bin/../lib/gcc/nios2-elf/4.1.2\libgcc.a(_mul_df.o)
 .debug_frame   0x00000c30       0x30 c:/altera/12.1sp1/nios2eds/bin/gnu/h-i686-mingw32/bin/../lib/gcc/nios2-elf/4.1.2\libgcc.a(_div_df.o)
 .debug_frame   0x00000c60       0x2c c:/altera/12.1sp1/nios2eds/bin/gnu/h-i686-mingw32/bin/../lib/gcc/nios2-elf/4.1.2\libgcc.a(_eq_df.o)
 .debug_frame   0x00000c8c       0x2c c:/altera/12.1sp1/nios2eds/bin/gnu/h-i686-mingw32/bin/../lib/gcc/nios2-elf/4.1.2\libgcc.a(_ne_df.o)
 .debug_frame   0x00000cb8       0x2c c:/altera/12.1sp1/nios2eds/bin/gnu/h-i686-mingw32/bin/../lib/gcc/nios2-elf/4.1.2\libgcc.a(_gt_df.o)
 .debug_frame   0x00000ce4       0x2c c:/altera/12.1sp1/nios2eds/bin/gnu/h-i686-mingw32/bin/../lib/gcc/nios2-elf/4.1.2\libgcc.a(_ge_df.o)
 .debug_frame   0x00000d10       0x2c c:/altera/12.1sp1/nios2eds/bin/gnu/h-i686-mingw32/bin/../lib/gcc/nios2-elf/4.1.2\libgcc.a(_lt_df.o)
 .debug_frame   0x00000d3c       0x30 c:/altera/12.1sp1/nios2eds/bin/gnu/h-i686-mingw32/bin/../lib/gcc/nios2-elf/4.1.2\libgcc.a(_si_to_df.o)
 .debug_frame   0x00000d6c       0x28 c:/altera/12.1sp1/nios2eds/bin/gnu/h-i686-mingw32/bin/../lib/gcc/nios2-elf/4.1.2\libgcc.a(_df_to_si.o)
 .debug_frame   0x00000d94       0x38 c:/altera/12.1sp1/nios2eds/bin/gnu/h-i686-mingw32/bin/../lib/gcc/nios2-elf/4.1.2\libgcc.a(_usi_to_df.o)
 .debug_frame   0x00000dcc       0x2c c:/altera/12.1sp1/nios2eds/bin/gnu/h-i686-mingw32/bin/../lib/gcc/nios2-elf/4.1.2\libgcc.a(_muldi3.o)
 .debug_frame   0x00000df8       0x20 c:/altera/12.1sp1/nios2eds/bin/gnu/h-i686-mingw32/bin/../lib/gcc/nios2-elf/4.1.2\libgcc.a(_clzsi2.o)
 .debug_frame   0x00000e18       0x2c c:/altera/12.1sp1/nios2eds/bin/gnu/h-i686-mingw32/bin/../lib/gcc/nios2-elf/4.1.2\libgcc.a(_pack_df.o)
 .debug_frame   0x00000e44       0x20 c:/altera/12.1sp1/nios2eds/bin/gnu/h-i686-mingw32/bin/../lib/gcc/nios2-elf/4.1.2\libgcc.a(_unpack_df.o)
 .debug_frame   0x00000e64       0x20 c:/altera/12.1sp1/nios2eds/bin/gnu/h-i686-mingw32/bin/../lib/gcc/nios2-elf/4.1.2\libgcc.a(_fpcmp_parts_df.o)
 .debug_frame   0x00000e84       0x48 ../SynthUnitTest_bsp/\libucosii_bsp.a(alt_close.o)
 .debug_frame   0x00000ecc       0x2c ../SynthUnitTest_bsp/\libucosii_bsp.a(alt_dev.o)
 .debug_frame   0x00000ef8       0x48 ../SynthUnitTest_bsp/\libucosii_bsp.a(alt_fstat.o)
 .debug_frame   0x00000f40       0x48 ../SynthUnitTest_bsp/\libucosii_bsp.a(alt_isatty.o)
 .debug_frame   0x00000f88       0x48 ../SynthUnitTest_bsp/\libucosii_bsp.a(alt_load.o)
 .debug_frame   0x00000fd0       0x48 ../SynthUnitTest_bsp/\libucosii_bsp.a(alt_lseek.o)
 .debug_frame   0x00001018       0x2c ../SynthUnitTest_bsp/\libucosii_bsp.a(alt_main.o)
 .debug_frame   0x00001044       0x48 ../SynthUnitTest_bsp/\libucosii_bsp.a(alt_read.o)
 .debug_frame   0x0000108c       0x2c ../SynthUnitTest_bsp/\libucosii_bsp.a(alt_release_fd.o)
 .debug_frame   0x000010b8       0x2c ../SynthUnitTest_bsp/\libucosii_bsp.a(alt_sbrk.o)
 .debug_frame   0x000010e4       0x48 ../SynthUnitTest_bsp/\libucosii_bsp.a(alt_write.o)
 .debug_frame   0x0000112c       0x4c ../SynthUnitTest_bsp/\libucosii_bsp.a(alt_env_lock.o)
 .debug_frame   0x00001178       0x4c ../SynthUnitTest_bsp/\libucosii_bsp.a(alt_malloc_lock.o)
 .debug_frame   0x000011c4      0x3e4 ../SynthUnitTest_bsp/\libucosii_bsp.a(os_core.o)
 .debug_frame   0x000015a8       0x2c ../SynthUnitTest_bsp/\libucosii_bsp.a(os_dbg.o)
 .debug_frame   0x000015d4      0x180 ../SynthUnitTest_bsp/\libucosii_bsp.a(os_flag.o)
 .debug_frame   0x00001754       0xd4 ../SynthUnitTest_bsp/\libucosii_bsp.a(os_mem.o)
 .debug_frame   0x00001828      0x144 ../SynthUnitTest_bsp/\libucosii_bsp.a(os_q.o)
 .debug_frame   0x0000196c       0xf0 ../SynthUnitTest_bsp/\libucosii_bsp.a(os_sem.o)
 .debug_frame   0x00001a5c      0x160 ../SynthUnitTest_bsp/\libucosii_bsp.a(os_task.o)
 .debug_frame   0x00001bbc       0xa0 ../SynthUnitTest_bsp/\libucosii_bsp.a(os_time.o)
 .debug_frame   0x00001c5c       0x64 ../SynthUnitTest_bsp/\libucosii_bsp.a(alt_sys_init.o)
 .debug_frame   0x00001cc0      0x1ec ../SynthUnitTest_bsp/\libucosii_bsp.a(altera_avalon_fifo_util.o)
 .debug_frame   0x00001eac       0x80 ../SynthUnitTest_bsp/\libucosii_bsp.a(altera_avalon_jtag_uart_fd.o)
 .debug_frame   0x00001f2c       0x80 ../SynthUnitTest_bsp/\libucosii_bsp.a(altera_avalon_jtag_uart_init.o)
 .debug_frame   0x00001fac       0x2c ../SynthUnitTest_bsp/\libucosii_bsp.a(altera_avalon_jtag_uart_ioctl.o)
 .debug_frame   0x00001fd8       0x2c ../SynthUnitTest_bsp/\libucosii_bsp.a(altera_avalon_jtag_uart_read.o)
 .debug_frame   0x00002004       0x2c ../SynthUnitTest_bsp/\libucosii_bsp.a(altera_avalon_jtag_uart_write.o)
 .debug_frame   0x00002030       0x48 ../SynthUnitTest_bsp/\libucosii_bsp.a(altera_avalon_timer_sc.o)
 .debug_frame   0x00002078      0x17c ../SynthUnitTest_bsp/\libucosii_bsp.a(altera_up_avalon_character_lcd.o)
 .debug_frame   0x000021f4       0x2c ../SynthUnitTest_bsp/\libucosii_bsp.a(alt_alarm_start.o)
 .debug_frame   0x00002220       0x2c ../SynthUnitTest_bsp/\libucosii_bsp.a(alt_dcache_flush_all.o)
 .debug_frame   0x0000224c       0x48 ../SynthUnitTest_bsp/\libucosii_bsp.a(alt_dev_llist_insert.o)
 .debug_frame   0x00002294       0x2c ../SynthUnitTest_bsp/\libucosii_bsp.a(alt_do_ctors.o)
 .debug_frame   0x000022c0       0x2c ../SynthUnitTest_bsp/\libucosii_bsp.a(alt_do_dtors.o)
 .debug_frame   0x000022ec       0x2c ../SynthUnitTest_bsp/\libucosii_bsp.a(alt_find_dev.o)
 .debug_frame   0x00002318       0x2c ../SynthUnitTest_bsp/\libucosii_bsp.a(alt_icache_flush_all.o)
 .debug_frame   0x00002344       0x80 ../SynthUnitTest_bsp/\libucosii_bsp.a(alt_iic.o)
 .debug_frame   0x000023c4       0x2c ../SynthUnitTest_bsp/\libucosii_bsp.a(alt_iic_isr_register.o)
 .debug_frame   0x000023f0       0x48 ../SynthUnitTest_bsp/\libucosii_bsp.a(alt_io_redirect.o)
 .debug_frame   0x00002438       0x2c ../SynthUnitTest_bsp/\libucosii_bsp.a(alt_irq_handler.o)
 .debug_frame   0x00002464       0x64 ../SynthUnitTest_bsp/\libucosii_bsp.a(alt_open.o)
 .debug_frame   0x000024c8       0x48 ../SynthUnitTest_bsp/\libucosii_bsp.a(alt_tick.o)
 .debug_frame   0x00002510       0x2c ../SynthUnitTest_bsp/\libucosii_bsp.a(altera_nios2_qsys_irq.o)
 .debug_frame   0x0000253c      0x128 ../SynthUnitTest_bsp/\libucosii_bsp.a(os_cpu_c.o)
 .debug_frame   0x00002664       0x2c ../SynthUnitTest_bsp/\libucosii_bsp.a(alt_find_file.o)
 .debug_frame   0x00002690       0x2c ../SynthUnitTest_bsp/\libucosii_bsp.a(alt_get_fd.o)
 .debug_frame   0x000026bc       0x2c ../SynthUnitTest_bsp/\libucosii_bsp.a(alt_icache_flush.o)
 .debug_frame   0x000026e8       0x20 c:/altera/12.1sp1/nios2eds/bin/gnu/h-i686-mingw32/bin/../lib/gcc/nios2-elf/4.1.2/../../../../nios2-elf/lib\libc.a(lib_a-atexit.o)
 .debug_frame   0x00002708       0x28 c:/altera/12.1sp1/nios2eds/bin/gnu/h-i686-mingw32/bin/../lib/gcc/nios2-elf/4.1.2/../../../../nios2-elf/lib\libc.a(lib_a-exit.o)
 .debug_frame   0x00002730       0x20 c:/altera/12.1sp1/nios2eds/bin/gnu/h-i686-mingw32/bin/../lib/gcc/nios2-elf/4.1.2/../../../../nios2-elf/lib\libc.a(lib_a-memcmp.o)
 .debug_frame   0x00002750       0x34 c:/altera/12.1sp1/nios2eds/bin/gnu/h-i686-mingw32/bin/../lib/gcc/nios2-elf/4.1.2/../../../../nios2-elf/lib\libc.a(lib_a-__atexit.o)
 .debug_frame   0x00002784       0x4c c:/altera/12.1sp1/nios2eds/bin/gnu/h-i686-mingw32/bin/../lib/gcc/nios2-elf/4.1.2/../../../../nios2-elf/lib\libc.a(lib_a-__call_atexit.o)
 .debug_frame   0x000027d0       0x48 ../SynthUnitTest_bsp/\libucosii_bsp.a(alt_exit.o)

.debug_str      0x00000000     0x24c6
 *(.debug_str)
 .debug_str     0x00000000       0x12 obj/default/hello_ucosii.o
 .debug_str     0x00000012      0x167 c:/altera/12.1sp1/nios2eds/bin/gnu/h-i686-mingw32/bin/../lib/gcc/nios2-elf/4.1.2\libgcc.a(lib2-divmod.o)
                                0x1b4 (size before relaxing)
 .debug_str     0x00000179      0x43f c:/altera/12.1sp1/nios2eds/bin/gnu/h-i686-mingw32/bin/../lib/gcc/nios2-elf/4.1.2/../../../../nios2-elf/lib\libc.a(lib_a-printf.o)
                                0x523 (size before relaxing)
 .debug_str     0x000005b8       0x4e c:/altera/12.1sp1/nios2eds/bin/gnu/h-i686-mingw32/bin/../lib/gcc/nios2-elf/4.1.2/../../../../nios2-elf/lib\libc.a(lib_a-putchar.o)
                                0x50f (size before relaxing)
 .debug_str     0x00000606      0x1c1 c:/altera/12.1sp1/nios2eds/bin/gnu/h-i686-mingw32/bin/../lib/gcc/nios2-elf/4.1.2/../../../../nios2-elf/lib\libc.a(lib_a-vfprintf.o)
                                0x6f8 (size before relaxing)
 .debug_str     0x000007c7       0x46 c:/altera/12.1sp1/nios2eds/bin/gnu/h-i686-mingw32/bin/../lib/gcc/nios2-elf/4.1.2/../../../../nios2-elf/lib\libc.a(lib_a-wsetup.o)
                                0x50c (size before relaxing)
 .debug_str     0x0000080d      0x18e c:/altera/12.1sp1/nios2eds/bin/gnu/h-i686-mingw32/bin/../lib/gcc/nios2-elf/4.1.2/../../../../nios2-elf/lib\libc.a(lib_a-dtoa.o)
                                0x601 (size before relaxing)
 .debug_str     0x0000099b       0x65 c:/altera/12.1sp1/nios2eds/bin/gnu/h-i686-mingw32/bin/../lib/gcc/nios2-elf/4.1.2/../../../../nios2-elf/lib\libc.a(lib_a-fflush.o)
                                0x532 (size before relaxing)
 .debug_str     0x00000a00      0x102 c:/altera/12.1sp1/nios2eds/bin/gnu/h-i686-mingw32/bin/../lib/gcc/nios2-elf/4.1.2/../../../../nios2-elf/lib\libc.a(lib_a-findfp.o)
                                0x5f4 (size before relaxing)
 .debug_str     0x00000b02      0x15b c:/altera/12.1sp1/nios2eds/bin/gnu/h-i686-mingw32/bin/../lib/gcc/nios2-elf/4.1.2/../../../../nios2-elf/lib\libc.a(lib_a-freer.o)
                                0x643 (size before relaxing)
 .debug_str     0x00000c5d       0x66 c:/altera/12.1sp1/nios2eds/bin/gnu/h-i686-mingw32/bin/../lib/gcc/nios2-elf/4.1.2/../../../../nios2-elf/lib\libc.a(lib_a-fvwrite.o)
                                0x563 (size before relaxing)
 .debug_str     0x00000cc3       0x5e c:/altera/12.1sp1/nios2eds/bin/gnu/h-i686-mingw32/bin/../lib/gcc/nios2-elf/4.1.2/../../../../nios2-elf/lib\libc.a(lib_a-fwalk.o)
                                0x535 (size before relaxing)
 .debug_str     0x00000d21       0xd1 c:/altera/12.1sp1/nios2eds/bin/gnu/h-i686-mingw32/bin/../lib/gcc/nios2-elf/4.1.2/../../../../nios2-elf/lib\libc.a(lib_a-impure.o)
                                0x51a (size before relaxing)
 .debug_str     0x00000df2      0x225 c:/altera/12.1sp1/nios2eds/bin/gnu/h-i686-mingw32/bin/../lib/gcc/nios2-elf/4.1.2/../../../../nios2-elf/lib\libc.a(lib_a-locale.o)
                                0x6a9 (size before relaxing)
 .debug_str     0x00001017      0x123 c:/altera/12.1sp1/nios2eds/bin/gnu/h-i686-mingw32/bin/../lib/gcc/nios2-elf/4.1.2/../../../../nios2-elf/lib\libc.a(lib_a-makebuf.o)
                                0x606 (size before relaxing)
 .debug_str     0x0000113a       0xef c:/altera/12.1sp1/nios2eds/bin/gnu/h-i686-mingw32/bin/../lib/gcc/nios2-elf/4.1.2/../../../../nios2-elf/lib\libc.a(lib_a-mallocr.o)
                                0x6f1 (size before relaxing)
 .debug_str     0x00001229       0xe8 c:/altera/12.1sp1/nios2eds/bin/gnu/h-i686-mingw32/bin/../lib/gcc/nios2-elf/4.1.2/../../../../nios2-elf/lib\libc.a(lib_a-memchr.o)
                                0x18b (size before relaxing)
 .debug_str     0x00001311       0x69 c:/altera/12.1sp1/nios2eds/bin/gnu/h-i686-mingw32/bin/../lib/gcc/nios2-elf/4.1.2/../../../../nios2-elf/lib\libc.a(lib_a-memcpy.o)
                                0x128 (size before relaxing)
 .debug_str     0x0000137a       0x4d c:/altera/12.1sp1/nios2eds/bin/gnu/h-i686-mingw32/bin/../lib/gcc/nios2-elf/4.1.2/../../../../nios2-elf/lib\libc.a(lib_a-memmove.o)
                                0x19d (size before relaxing)
 .debug_str     0x000013c7       0x4f c:/altera/12.1sp1/nios2eds/bin/gnu/h-i686-mingw32/bin/../lib/gcc/nios2-elf/4.1.2/../../../../nios2-elf/lib\libc.a(lib_a-memset.o)
                                0x17e (size before relaxing)
 .debug_str     0x00001416       0xf8 c:/altera/12.1sp1/nios2eds/bin/gnu/h-i686-mingw32/bin/../lib/gcc/nios2-elf/4.1.2/../../../../nios2-elf/lib\libc.a(lib_a-mprec.o)
                                0x60e (size before relaxing)
 .debug_str     0x0000150e       0x45 c:/altera/12.1sp1/nios2eds/bin/gnu/h-i686-mingw32/bin/../lib/gcc/nios2-elf/4.1.2/../../../../nios2-elf/lib\libc.a(lib_a-putc.o)
                                0x512 (size before relaxing)
 .debug_str     0x00001553       0x59 c:/altera/12.1sp1/nios2eds/bin/gnu/h-i686-mingw32/bin/../lib/gcc/nios2-elf/4.1.2/../../../../nios2-elf/lib\libc.a(lib_a-reallocr.o)
                                0x5c3 (size before relaxing)
 .debug_str     0x000015ac       0xdc c:/altera/12.1sp1/nios2eds/bin/gnu/h-i686-mingw32/bin/../lib/gcc/nios2-elf/4.1.2/../../../../nios2-elf/lib\libc.a(lib_a-s_isinfd.o)
                                0x18a (size before relaxing)
 .debug_str     0x00001688       0x46 c:/altera/12.1sp1/nios2eds/bin/gnu/h-i686-mingw32/bin/../lib/gcc/nios2-elf/4.1.2/../../../../nios2-elf/lib\libc.a(lib_a-s_isnand.o)
                                0x18a (size before relaxing)
 .debug_str     0x000016ce       0x50 c:/altera/12.1sp1/nios2eds/bin/gnu/h-i686-mingw32/bin/../lib/gcc/nios2-elf/4.1.2/../../../../nios2-elf/lib\libc.a(lib_a-sbrkr.o)
                                0x50b (size before relaxing)
 .debug_str     0x0000171e       0x62 c:/altera/12.1sp1/nios2eds/bin/gnu/h-i686-mingw32/bin/../lib/gcc/nios2-elf/4.1.2/../../../../nios2-elf/lib\libc.a(lib_a-stdio.o)
                                0x531 (size before relaxing)
 .debug_str     0x00001780       0x42 c:/altera/12.1sp1/nios2eds/bin/gnu/h-i686-mingw32/bin/../lib/gcc/nios2-elf/4.1.2/../../../../nios2-elf/lib\libc.a(lib_a-strcmp.o)
                                0x163 (size before relaxing)
 .debug_str     0x000017c2       0x42 c:/altera/12.1sp1/nios2eds/bin/gnu/h-i686-mingw32/bin/../lib/gcc/nios2-elf/4.1.2/../../../../nios2-elf/lib\libc.a(lib_a-strlen.o)
                                0x17d (size before relaxing)
 .debug_str     0x00001804       0x4a c:/altera/12.1sp1/nios2eds/bin/gnu/h-i686-mingw32/bin/../lib/gcc/nios2-elf/4.1.2/../../../../nios2-elf/lib\libc.a(lib_a-wbuf.o)
                                0x510 (size before relaxing)
 .debug_str     0x0000184e       0x4c c:/altera/12.1sp1/nios2eds/bin/gnu/h-i686-mingw32/bin/../lib/gcc/nios2-elf/4.1.2/../../../../nios2-elf/lib\libc.a(lib_a-writer.o)
                                0x50e (size before relaxing)
 .debug_str     0x0000189a       0x19 c:/altera/12.1sp1/nios2eds/bin/gnu/h-i686-mingw32/bin/../lib/gcc/nios2-elf/4.1.2/../../../../nios2-elf/lib\libc.a(lib_a-callocr.o)
                                0x542 (size before relaxing)
 .debug_str     0x000018b3       0x43 c:/altera/12.1sp1/nios2eds/bin/gnu/h-i686-mingw32/bin/../lib/gcc/nios2-elf/4.1.2/../../../../nios2-elf/lib\libc.a(lib_a-closer.o)
                                0x4fe (size before relaxing)
 .debug_str     0x000018f6       0x4b c:/altera/12.1sp1/nios2eds/bin/gnu/h-i686-mingw32/bin/../lib/gcc/nios2-elf/4.1.2/../../../../nios2-elf/lib\libc.a(lib_a-fclose.o)
                                0x516 (size before relaxing)
 .debug_str     0x00001941       0x49 c:/altera/12.1sp1/nios2eds/bin/gnu/h-i686-mingw32/bin/../lib/gcc/nios2-elf/4.1.2/../../../../nios2-elf/lib\libc.a(lib_a-fstatr.o)
                                0x5f1 (size before relaxing)
 .debug_str     0x0000198a       0x3d c:/altera/12.1sp1/nios2eds/bin/gnu/h-i686-mingw32/bin/../lib/gcc/nios2-elf/4.1.2/../../../../nios2-elf/lib\libc.a(lib_a-int_errno.o)
                                0x163 (size before relaxing)
 .debug_str     0x000019c7       0x45 c:/altera/12.1sp1/nios2eds/bin/gnu/h-i686-mingw32/bin/../lib/gcc/nios2-elf/4.1.2/../../../../nios2-elf/lib\libc.a(lib_a-isattyr.o)
                                0x500 (size before relaxing)
 .debug_str     0x00001a0c       0x43 c:/altera/12.1sp1/nios2eds/bin/gnu/h-i686-mingw32/bin/../lib/gcc/nios2-elf/4.1.2/../../../../nios2-elf/lib\libc.a(lib_a-lseekr.o)
                                0x50c (size before relaxing)
 .debug_str     0x00001a4f       0x41 c:/altera/12.1sp1/nios2eds/bin/gnu/h-i686-mingw32/bin/../lib/gcc/nios2-elf/4.1.2/../../../../nios2-elf/lib\libc.a(lib_a-readr.o)
                                0x50c (size before relaxing)
 .debug_str     0x00001a90       0xb2 c:/altera/12.1sp1/nios2eds/bin/gnu/h-i686-mingw32/bin/../lib/gcc/nios2-elf/4.1.2\libgcc.a(_udivdi3.o)
                                0x1f7 (size before relaxing)
 .debug_str     0x00001b42        0xa c:/altera/12.1sp1/nios2eds/bin/gnu/h-i686-mingw32/bin/../lib/gcc/nios2-elf/4.1.2\libgcc.a(_umoddi3.o)
                                0x1f7 (size before relaxing)
 .debug_str     0x00001b4c      0x137 c:/altera/12.1sp1/nios2eds/bin/gnu/h-i686-mingw32/bin/../lib/gcc/nios2-elf/4.1.2\libgcc.a(_addsub_df.o)
                                0x26f (size before relaxing)
 .debug_str     0x00001c83       0x40 c:/altera/12.1sp1/nios2eds/bin/gnu/h-i686-mingw32/bin/../lib/gcc/nios2-elf/4.1.2\libgcc.a(_mul_df.o)
                                0x241 (size before relaxing)
 .debug_str     0x00001cc3       0x35 c:/altera/12.1sp1/nios2eds/bin/gnu/h-i686-mingw32/bin/../lib/gcc/nios2-elf/4.1.2\libgcc.a(_div_df.o)
                                0x231 (size before relaxing)
 .debug_str     0x00001cf8        0x8 c:/altera/12.1sp1/nios2eds/bin/gnu/h-i686-mingw32/bin/../lib/gcc/nios2-elf/4.1.2\libgcc.a(_eq_df.o)
                                0x1fe (size before relaxing)
 .debug_str     0x00001d00        0x8 c:/altera/12.1sp1/nios2eds/bin/gnu/h-i686-mingw32/bin/../lib/gcc/nios2-elf/4.1.2\libgcc.a(_ne_df.o)
                                0x1fe (size before relaxing)
 .debug_str     0x00001d08        0x8 c:/altera/12.1sp1/nios2eds/bin/gnu/h-i686-mingw32/bin/../lib/gcc/nios2-elf/4.1.2\libgcc.a(_gt_df.o)
                                0x1fe (size before relaxing)
 .debug_str     0x00001d10        0x8 c:/altera/12.1sp1/nios2eds/bin/gnu/h-i686-mingw32/bin/../lib/gcc/nios2-elf/4.1.2\libgcc.a(_ge_df.o)
                                0x1fe (size before relaxing)
 .debug_str     0x00001d18        0x8 c:/altera/12.1sp1/nios2eds/bin/gnu/h-i686-mingw32/bin/../lib/gcc/nios2-elf/4.1.2\libgcc.a(_lt_df.o)
                                0x1fe (size before relaxing)
 .debug_str     0x00001d20       0x18 c:/altera/12.1sp1/nios2eds/bin/gnu/h-i686-mingw32/bin/../lib/gcc/nios2-elf/4.1.2\libgcc.a(_si_to_df.o)
                                0x1de (size before relaxing)
 .debug_str     0x00001d38        0xa c:/altera/12.1sp1/nios2eds/bin/gnu/h-i686-mingw32/bin/../lib/gcc/nios2-elf/4.1.2\libgcc.a(_df_to_si.o)
                                0x207 (size before relaxing)
 .debug_str     0x00000000      0x1a3 c:/altera/12.1sp1/nios2eds/bin/gnu/h-i686-mingw32/bin/../lib/gcc/nios2-elf/4.1.2\libgcc.a(_thenan_df.o)
 .debug_str     0x00001d42       0x14 c:/altera/12.1sp1/nios2eds/bin/gnu/h-i686-mingw32/bin/../lib/gcc/nios2-elf/4.1.2\libgcc.a(_usi_to_df.o)
                                0x1da (size before relaxing)
 .debug_str     0x00001d56        0x9 c:/altera/12.1sp1/nios2eds/bin/gnu/h-i686-mingw32/bin/../lib/gcc/nios2-elf/4.1.2\libgcc.a(_muldi3.o)
                                0x1ac (size before relaxing)
 .debug_str     0x00000000      0x161 c:/altera/12.1sp1/nios2eds/bin/gnu/h-i686-mingw32/bin/../lib/gcc/nios2-elf/4.1.2\libgcc.a(_clz.o)
 .debug_str     0x00001d5f        0x9 c:/altera/12.1sp1/nios2eds/bin/gnu/h-i686-mingw32/bin/../lib/gcc/nios2-elf/4.1.2\libgcc.a(_clzsi2.o)
                                0x17e (size before relaxing)
 .debug_str     0x00001d68       0x10 c:/altera/12.1sp1/nios2eds/bin/gnu/h-i686-mingw32/bin/../lib/gcc/nios2-elf/4.1.2\libgcc.a(_pack_df.o)
                                0x206 (size before relaxing)
 .debug_str     0x00001d78        0xb c:/altera/12.1sp1/nios2eds/bin/gnu/h-i686-mingw32/bin/../lib/gcc/nios2-elf/4.1.2\libgcc.a(_unpack_df.o)
                                0x1e8 (size before relaxing)
 .debug_str     0x00001d83       0x10 c:/altera/12.1sp1/nios2eds/bin/gnu/h-i686-mingw32/bin/../lib/gcc/nios2-elf/4.1.2\libgcc.a(_fpcmp_parts_df.o)
                                0x1c6 (size before relaxing)
 .debug_str     0x00001d93       0x12 ../SynthUnitTest_bsp/\libucosii_bsp.a(alt_close.o)
 .debug_str     0x00001da5       0x12 ../SynthUnitTest_bsp/\libucosii_bsp.a(alt_dev.o)
 .debug_str     0x00001db7       0x12 ../SynthUnitTest_bsp/\libucosii_bsp.a(alt_errno.o)
 .debug_str     0x00001dc9       0x12 ../SynthUnitTest_bsp/\libucosii_bsp.a(alt_fstat.o)
 .debug_str     0x00001ddb       0x12 ../SynthUnitTest_bsp/\libucosii_bsp.a(alt_isatty.o)
 .debug_str     0x00001ded       0x12 ../SynthUnitTest_bsp/\libucosii_bsp.a(alt_load.o)
 .debug_str     0x00001dff       0x12 ../SynthUnitTest_bsp/\libucosii_bsp.a(alt_lseek.o)
 .debug_str     0x00001e11       0x12 ../SynthUnitTest_bsp/\libucosii_bsp.a(alt_main.o)
 .debug_str     0x00001e23       0x12 ../SynthUnitTest_bsp/\libucosii_bsp.a(alt_read.o)
 .debug_str     0x00001e35       0x12 ../SynthUnitTest_bsp/\libucosii_bsp.a(alt_release_fd.o)
 .debug_str     0x00001e47       0x1a ../SynthUnitTest_bsp/\libucosii_bsp.a(alt_sbrk.o)
 .debug_str     0x00001e61       0x12 ../SynthUnitTest_bsp/\libucosii_bsp.a(alt_write.o)
 .debug_str     0x00001e73       0x36 ../SynthUnitTest_bsp/\libucosii_bsp.a(alt_env_lock.o)
 .debug_str     0x00001ea9       0x36 ../SynthUnitTest_bsp/\libucosii_bsp.a(alt_malloc_lock.o)
 .debug_str     0x00001edf       0x46 ../SynthUnitTest_bsp/\libucosii_bsp.a(os_core.o)
 .debug_str     0x00001f25       0x2b ../SynthUnitTest_bsp/\libucosii_bsp.a(os_dbg.o)
 .debug_str     0x00001f50       0x4e ../SynthUnitTest_bsp/\libucosii_bsp.a(os_flag.o)
 .debug_str     0x00001f9e       0x2c ../SynthUnitTest_bsp/\libucosii_bsp.a(os_mem.o)
 .debug_str     0x00001fca       0x36 ../SynthUnitTest_bsp/\libucosii_bsp.a(os_q.o)
 .debug_str     0x00002000       0x36 ../SynthUnitTest_bsp/\libucosii_bsp.a(os_sem.o)
 .debug_str     0x00002036       0x23 ../SynthUnitTest_bsp/\libucosii_bsp.a(os_task.o)
 .debug_str     0x00002059       0x1f ../SynthUnitTest_bsp/\libucosii_bsp.a(os_time.o)
 .debug_str     0x00002078       0x2b ../SynthUnitTest_bsp/\libucosii_bsp.a(alt_sys_init.o)
 .debug_str     0x000020a3       0x42 ../SynthUnitTest_bsp/\libucosii_bsp.a(altera_avalon_fifo_util.o)
 .debug_str     0x000020e5       0x12 ../SynthUnitTest_bsp/\libucosii_bsp.a(altera_avalon_jtag_uart_fd.o)
 .debug_str     0x000020f7       0x1a ../SynthUnitTest_bsp/\libucosii_bsp.a(altera_avalon_jtag_uart_init.o)
 .debug_str     0x00002111       0x12 ../SynthUnitTest_bsp/\libucosii_bsp.a(altera_avalon_jtag_uart_ioctl.o)
 .debug_str     0x00002123       0x22 ../SynthUnitTest_bsp/\libucosii_bsp.a(altera_avalon_jtag_uart_read.o)
 .debug_str     0x00002145       0x22 ../SynthUnitTest_bsp/\libucosii_bsp.a(altera_avalon_jtag_uart_write.o)
 .debug_str     0x00002167       0x12 ../SynthUnitTest_bsp/\libucosii_bsp.a(altera_avalon_timer_sc.o)
 .debug_str     0x00002179       0x55 ../SynthUnitTest_bsp/\libucosii_bsp.a(altera_up_avalon_character_lcd.o)
 .debug_str     0x000021ce       0x23 ../SynthUnitTest_bsp/\libucosii_bsp.a(alt_alarm_start.o)
 .debug_str     0x000021f1       0x12 ../SynthUnitTest_bsp/\libucosii_bsp.a(alt_dcache_flush_all.o)
 .debug_str     0x00002203       0x12 ../SynthUnitTest_bsp/\libucosii_bsp.a(alt_dev_llist_insert.o)
 .debug_str     0x00002215       0x12 ../SynthUnitTest_bsp/\libucosii_bsp.a(alt_find_dev.o)
 .debug_str     0x00002227       0x12 ../SynthUnitTest_bsp/\libucosii_bsp.a(alt_icache_flush_all.o)
 .debug_str     0x00002239       0x18 ../SynthUnitTest_bsp/\libucosii_bsp.a(alt_iic.o)
 .debug_str     0x00002251       0x1a ../SynthUnitTest_bsp/\libucosii_bsp.a(alt_iic_isr_register.o)
 .debug_str     0x0000226b       0x12 ../SynthUnitTest_bsp/\libucosii_bsp.a(alt_io_redirect.o)
 .debug_str     0x0000227d       0x12 ../SynthUnitTest_bsp/\libucosii_bsp.a(alt_irq_handler.o)
 .debug_str     0x0000228f       0x12 ../SynthUnitTest_bsp/\libucosii_bsp.a(alt_open.o)
 .debug_str     0x000022a1       0x1a ../SynthUnitTest_bsp/\libucosii_bsp.a(alt_tick.o)
 .debug_str     0x000022bb       0x12 ../SynthUnitTest_bsp/\libucosii_bsp.a(altera_nios2_qsys_irq.o)
 .debug_str     0x000022cd       0x20 ../SynthUnitTest_bsp/\libucosii_bsp.a(os_cpu_c.o)
 .debug_str     0x000022ed       0x12 ../SynthUnitTest_bsp/\libucosii_bsp.a(alt_find_file.o)
 .debug_str     0x000022ff       0x12 ../SynthUnitTest_bsp/\libucosii_bsp.a(alt_get_fd.o)
 .debug_str     0x00002311       0x12 ../SynthUnitTest_bsp/\libucosii_bsp.a(alt_icache_flush.o)
 .debug_str     0x00002323       0x3b c:/altera/12.1sp1/nios2eds/bin/gnu/h-i686-mingw32/bin/../lib/gcc/nios2-elf/4.1.2/../../../../nios2-elf/lib\libc.a(lib_a-atexit.o)
                                0x1bf (size before relaxing)
 .debug_str     0x0000235e       0x3e c:/altera/12.1sp1/nios2eds/bin/gnu/h-i686-mingw32/bin/../lib/gcc/nios2-elf/4.1.2/../../../../nios2-elf/lib\libc.a(lib_a-exit.o)
                                0x50c (size before relaxing)
 .debug_str     0x0000239c       0x42 c:/altera/12.1sp1/nios2eds/bin/gnu/h-i686-mingw32/bin/../lib/gcc/nios2-elf/4.1.2/../../../../nios2-elf/lib\libc.a(lib_a-memcmp.o)
                                0x16a (size before relaxing)
 .debug_str     0x000023de       0x51 c:/altera/12.1sp1/nios2eds/bin/gnu/h-i686-mingw32/bin/../lib/gcc/nios2-elf/4.1.2/../../../../nios2-elf/lib\libc.a(lib_a-__atexit.o)
                                0x524 (size before relaxing)
 .debug_str     0x0000242f       0x7b c:/altera/12.1sp1/nios2eds/bin/gnu/h-i686-mingw32/bin/../lib/gcc/nios2-elf/4.1.2/../../../../nios2-elf/lib\libc.a(lib_a-__call_atexit.o)
                                0x54e (size before relaxing)
 .debug_str     0x000024aa       0x1c ../SynthUnitTest_bsp/\libucosii_bsp.a(alt_exit.o)

.debug_loc      0x00000000     0xd6fe
 *(.debug_loc)
 .debug_loc     0x00000000       0x56 obj/default/hello_ucosii.o
 .debug_loc     0x00000056      0x1d2 c:/altera/12.1sp1/nios2eds/bin/gnu/h-i686-mingw32/bin/../lib/gcc/nios2-elf/4.1.2\libgcc.a(lib2-divmod.o)
 .debug_loc     0x00000228       0xcb c:/altera/12.1sp1/nios2eds/bin/gnu/h-i686-mingw32/bin/../lib/gcc/nios2-elf/4.1.2/../../../../nios2-elf/lib\libc.a(lib_a-printf.o)
 .debug_loc     0x000002f3       0x44 c:/altera/12.1sp1/nios2eds/bin/gnu/h-i686-mingw32/bin/../lib/gcc/nios2-elf/4.1.2/../../../../nios2-elf/lib\libc.a(lib_a-putchar.o)
 .debug_loc     0x00000337     0x1e0d c:/altera/12.1sp1/nios2eds/bin/gnu/h-i686-mingw32/bin/../lib/gcc/nios2-elf/4.1.2/../../../../nios2-elf/lib\libc.a(lib_a-vfprintf.o)
 .debug_loc     0x00002144       0x7c c:/altera/12.1sp1/nios2eds/bin/gnu/h-i686-mingw32/bin/../lib/gcc/nios2-elf/4.1.2/../../../../nios2-elf/lib\libc.a(lib_a-wsetup.o)
 .debug_loc     0x000021c0     0x1dfa c:/altera/12.1sp1/nios2eds/bin/gnu/h-i686-mingw32/bin/../lib/gcc/nios2-elf/4.1.2/../../../../nios2-elf/lib\libc.a(lib_a-dtoa.o)
 .debug_loc     0x00003fba      0x1f6 c:/altera/12.1sp1/nios2eds/bin/gnu/h-i686-mingw32/bin/../lib/gcc/nios2-elf/4.1.2/../../../../nios2-elf/lib\libc.a(lib_a-fflush.o)
 .debug_loc     0x000041b0      0x19f c:/altera/12.1sp1/nios2eds/bin/gnu/h-i686-mingw32/bin/../lib/gcc/nios2-elf/4.1.2/../../../../nios2-elf/lib\libc.a(lib_a-findfp.o)
 .debug_loc     0x0000434f      0x4a7 c:/altera/12.1sp1/nios2eds/bin/gnu/h-i686-mingw32/bin/../lib/gcc/nios2-elf/4.1.2/../../../../nios2-elf/lib\libc.a(lib_a-freer.o)
 .debug_loc     0x000047f6      0x4e4 c:/altera/12.1sp1/nios2eds/bin/gnu/h-i686-mingw32/bin/../lib/gcc/nios2-elf/4.1.2/../../../../nios2-elf/lib\libc.a(lib_a-fvwrite.o)
 .debug_loc     0x00004cda      0x1d2 c:/altera/12.1sp1/nios2eds/bin/gnu/h-i686-mingw32/bin/../lib/gcc/nios2-elf/4.1.2/../../../../nios2-elf/lib\libc.a(lib_a-fwalk.o)
 .debug_loc     0x00004eac       0xe1 c:/altera/12.1sp1/nios2eds/bin/gnu/h-i686-mingw32/bin/../lib/gcc/nios2-elf/4.1.2/../../../../nios2-elf/lib\libc.a(lib_a-locale.o)
 .debug_loc     0x00004f8d      0x11c c:/altera/12.1sp1/nios2eds/bin/gnu/h-i686-mingw32/bin/../lib/gcc/nios2-elf/4.1.2/../../../../nios2-elf/lib\libc.a(lib_a-makebuf.o)
 .debug_loc     0x000050a9      0xaeb c:/altera/12.1sp1/nios2eds/bin/gnu/h-i686-mingw32/bin/../lib/gcc/nios2-elf/4.1.2/../../../../nios2-elf/lib\libc.a(lib_a-mallocr.o)
 .debug_loc     0x00005b94      0x106 c:/altera/12.1sp1/nios2eds/bin/gnu/h-i686-mingw32/bin/../lib/gcc/nios2-elf/4.1.2/../../../../nios2-elf/lib\libc.a(lib_a-memchr.o)
 .debug_loc     0x00005c9a       0xca c:/altera/12.1sp1/nios2eds/bin/gnu/h-i686-mingw32/bin/../lib/gcc/nios2-elf/4.1.2/../../../../nios2-elf/lib\libc.a(lib_a-memcpy.o)
 .debug_loc     0x00005d64      0x117 c:/altera/12.1sp1/nios2eds/bin/gnu/h-i686-mingw32/bin/../lib/gcc/nios2-elf/4.1.2/../../../../nios2-elf/lib\libc.a(lib_a-memmove.o)
 .debug_loc     0x00005e7b       0xa1 c:/altera/12.1sp1/nios2eds/bin/gnu/h-i686-mingw32/bin/../lib/gcc/nios2-elf/4.1.2/../../../../nios2-elf/lib\libc.a(lib_a-memset.o)
 .debug_loc     0x00005f1c     0x14d6 c:/altera/12.1sp1/nios2eds/bin/gnu/h-i686-mingw32/bin/../lib/gcc/nios2-elf/4.1.2/../../../../nios2-elf/lib\libc.a(lib_a-mprec.o)
 .debug_loc     0x000073f2      0x20d c:/altera/12.1sp1/nios2eds/bin/gnu/h-i686-mingw32/bin/../lib/gcc/nios2-elf/4.1.2/../../../../nios2-elf/lib\libc.a(lib_a-putc.o)
 .debug_loc     0x000075ff      0x8c0 c:/altera/12.1sp1/nios2eds/bin/gnu/h-i686-mingw32/bin/../lib/gcc/nios2-elf/4.1.2/../../../../nios2-elf/lib\libc.a(lib_a-reallocr.o)
 .debug_loc     0x00007ebf       0x36 c:/altera/12.1sp1/nios2eds/bin/gnu/h-i686-mingw32/bin/../lib/gcc/nios2-elf/4.1.2/../../../../nios2-elf/lib\libc.a(lib_a-s_isinfd.o)
 .debug_loc     0x00007ef5       0x18 c:/altera/12.1sp1/nios2eds/bin/gnu/h-i686-mingw32/bin/../lib/gcc/nios2-elf/4.1.2/../../../../nios2-elf/lib\libc.a(lib_a-s_isnand.o)
 .debug_loc     0x00007f0d       0x5b c:/altera/12.1sp1/nios2eds/bin/gnu/h-i686-mingw32/bin/../lib/gcc/nios2-elf/4.1.2/../../../../nios2-elf/lib\libc.a(lib_a-sbrkr.o)
 .debug_loc     0x00007f68      0x21f c:/altera/12.1sp1/nios2eds/bin/gnu/h-i686-mingw32/bin/../lib/gcc/nios2-elf/4.1.2/../../../../nios2-elf/lib\libc.a(lib_a-stdio.o)
 .debug_loc     0x00008187       0x65 c:/altera/12.1sp1/nios2eds/bin/gnu/h-i686-mingw32/bin/../lib/gcc/nios2-elf/4.1.2/../../../../nios2-elf/lib\libc.a(lib_a-strcmp.o)
 .debug_loc     0x000081ec       0x3c c:/altera/12.1sp1/nios2eds/bin/gnu/h-i686-mingw32/bin/../lib/gcc/nios2-elf/4.1.2/../../../../nios2-elf/lib\libc.a(lib_a-strlen.o)
 .debug_loc     0x00008228      0x157 c:/altera/12.1sp1/nios2eds/bin/gnu/h-i686-mingw32/bin/../lib/gcc/nios2-elf/4.1.2/../../../../nios2-elf/lib\libc.a(lib_a-wbuf.o)
 .debug_loc     0x0000837f       0x97 c:/altera/12.1sp1/nios2eds/bin/gnu/h-i686-mingw32/bin/../lib/gcc/nios2-elf/4.1.2/../../../../nios2-elf/lib\libc.a(lib_a-writer.o)
 .debug_loc     0x00008416       0xe9 c:/altera/12.1sp1/nios2eds/bin/gnu/h-i686-mingw32/bin/../lib/gcc/nios2-elf/4.1.2/../../../../nios2-elf/lib\libc.a(lib_a-callocr.o)
 .debug_loc     0x000084ff       0x5b c:/altera/12.1sp1/nios2eds/bin/gnu/h-i686-mingw32/bin/../lib/gcc/nios2-elf/4.1.2/../../../../nios2-elf/lib\libc.a(lib_a-closer.o)
 .debug_loc     0x0000855a       0xe4 c:/altera/12.1sp1/nios2eds/bin/gnu/h-i686-mingw32/bin/../lib/gcc/nios2-elf/4.1.2/../../../../nios2-elf/lib\libc.a(lib_a-fclose.o)
 .debug_loc     0x0000863e       0x79 c:/altera/12.1sp1/nios2eds/bin/gnu/h-i686-mingw32/bin/../lib/gcc/nios2-elf/4.1.2/../../../../nios2-elf/lib\libc.a(lib_a-fstatr.o)
 .debug_loc     0x000086b7       0x5b c:/altera/12.1sp1/nios2eds/bin/gnu/h-i686-mingw32/bin/../lib/gcc/nios2-elf/4.1.2/../../../../nios2-elf/lib\libc.a(lib_a-isattyr.o)
 .debug_loc     0x00008712       0x97 c:/altera/12.1sp1/nios2eds/bin/gnu/h-i686-mingw32/bin/../lib/gcc/nios2-elf/4.1.2/../../../../nios2-elf/lib\libc.a(lib_a-lseekr.o)
 .debug_loc     0x000087a9       0x97 c:/altera/12.1sp1/nios2eds/bin/gnu/h-i686-mingw32/bin/../lib/gcc/nios2-elf/4.1.2/../../../../nios2-elf/lib\libc.a(lib_a-readr.o)
 .debug_loc     0x00008840      0xc12 c:/altera/12.1sp1/nios2eds/bin/gnu/h-i686-mingw32/bin/../lib/gcc/nios2-elf/4.1.2\libgcc.a(_udivdi3.o)
 .debug_loc     0x00009452      0xc26 c:/altera/12.1sp1/nios2eds/bin/gnu/h-i686-mingw32/bin/../lib/gcc/nios2-elf/4.1.2\libgcc.a(_umoddi3.o)
 .debug_loc     0x0000a078      0x47a c:/altera/12.1sp1/nios2eds/bin/gnu/h-i686-mingw32/bin/../lib/gcc/nios2-elf/4.1.2\libgcc.a(_addsub_df.o)
 .debug_loc     0x0000a4f2      0x3b4 c:/altera/12.1sp1/nios2eds/bin/gnu/h-i686-mingw32/bin/../lib/gcc/nios2-elf/4.1.2\libgcc.a(_mul_df.o)
 .debug_loc     0x0000a8a6      0x1df c:/altera/12.1sp1/nios2eds/bin/gnu/h-i686-mingw32/bin/../lib/gcc/nios2-elf/4.1.2\libgcc.a(_div_df.o)
 .debug_loc     0x0000aa85       0x70 c:/altera/12.1sp1/nios2eds/bin/gnu/h-i686-mingw32/bin/../lib/gcc/nios2-elf/4.1.2\libgcc.a(_eq_df.o)
 .debug_loc     0x0000aaf5       0x70 c:/altera/12.1sp1/nios2eds/bin/gnu/h-i686-mingw32/bin/../lib/gcc/nios2-elf/4.1.2\libgcc.a(_ne_df.o)
 .debug_loc     0x0000ab65       0x70 c:/altera/12.1sp1/nios2eds/bin/gnu/h-i686-mingw32/bin/../lib/gcc/nios2-elf/4.1.2\libgcc.a(_gt_df.o)
 .debug_loc     0x0000abd5       0x70 c:/altera/12.1sp1/nios2eds/bin/gnu/h-i686-mingw32/bin/../lib/gcc/nios2-elf/4.1.2\libgcc.a(_ge_df.o)
 .debug_loc     0x0000ac45       0x70 c:/altera/12.1sp1/nios2eds/bin/gnu/h-i686-mingw32/bin/../lib/gcc/nios2-elf/4.1.2\libgcc.a(_lt_df.o)
 .debug_loc     0x0000acb5       0x9a c:/altera/12.1sp1/nios2eds/bin/gnu/h-i686-mingw32/bin/../lib/gcc/nios2-elf/4.1.2\libgcc.a(_si_to_df.o)
 .debug_loc     0x0000ad4f       0x8b c:/altera/12.1sp1/nios2eds/bin/gnu/h-i686-mingw32/bin/../lib/gcc/nios2-elf/4.1.2\libgcc.a(_df_to_si.o)
 .debug_loc     0x0000adda       0x5b c:/altera/12.1sp1/nios2eds/bin/gnu/h-i686-mingw32/bin/../lib/gcc/nios2-elf/4.1.2\libgcc.a(_usi_to_df.o)
 .debug_loc     0x0000ae35       0xc4 c:/altera/12.1sp1/nios2eds/bin/gnu/h-i686-mingw32/bin/../lib/gcc/nios2-elf/4.1.2\libgcc.a(_muldi3.o)
 .debug_loc     0x0000aef9       0x1e c:/altera/12.1sp1/nios2eds/bin/gnu/h-i686-mingw32/bin/../lib/gcc/nios2-elf/4.1.2\libgcc.a(_clzsi2.o)
 .debug_loc     0x0000af17      0x184 c:/altera/12.1sp1/nios2eds/bin/gnu/h-i686-mingw32/bin/../lib/gcc/nios2-elf/4.1.2\libgcc.a(_pack_df.o)
 .debug_loc     0x0000b09b       0xe5 c:/altera/12.1sp1/nios2eds/bin/gnu/h-i686-mingw32/bin/../lib/gcc/nios2-elf/4.1.2\libgcc.a(_unpack_df.o)
 .debug_loc     0x0000b180       0x56 ../SynthUnitTest_bsp/\libucosii_bsp.a(alt_close.o)
 .debug_loc     0x0000b1d6       0x2b ../SynthUnitTest_bsp/\libucosii_bsp.a(alt_dev.o)
 .debug_loc     0x0000b201       0x56 ../SynthUnitTest_bsp/\libucosii_bsp.a(alt_fstat.o)
 .debug_loc     0x0000b257       0x57 ../SynthUnitTest_bsp/\libucosii_bsp.a(alt_isatty.o)
 .debug_loc     0x0000b2ae       0x56 ../SynthUnitTest_bsp/\libucosii_bsp.a(alt_load.o)
 .debug_loc     0x0000b304       0x56 ../SynthUnitTest_bsp/\libucosii_bsp.a(alt_lseek.o)
 .debug_loc     0x0000b35a       0x2b ../SynthUnitTest_bsp/\libucosii_bsp.a(alt_main.o)
 .debug_loc     0x0000b385       0x56 ../SynthUnitTest_bsp/\libucosii_bsp.a(alt_read.o)
 .debug_loc     0x0000b3db       0x2b ../SynthUnitTest_bsp/\libucosii_bsp.a(alt_release_fd.o)
 .debug_loc     0x0000b406       0x2b ../SynthUnitTest_bsp/\libucosii_bsp.a(alt_sbrk.o)
 .debug_loc     0x0000b431       0x56 ../SynthUnitTest_bsp/\libucosii_bsp.a(alt_write.o)
 .debug_loc     0x0000b487       0x57 ../SynthUnitTest_bsp/\libucosii_bsp.a(alt_env_lock.o)
 .debug_loc     0x0000b4de       0x57 ../SynthUnitTest_bsp/\libucosii_bsp.a(alt_malloc_lock.o)
 .debug_loc     0x0000b535      0x5e2 ../SynthUnitTest_bsp/\libucosii_bsp.a(os_core.o)
 .debug_loc     0x0000bb17       0x2b ../SynthUnitTest_bsp/\libucosii_bsp.a(os_dbg.o)
 .debug_loc     0x0000bb42      0x232 ../SynthUnitTest_bsp/\libucosii_bsp.a(os_flag.o)
 .debug_loc     0x0000bd74      0x12d ../SynthUnitTest_bsp/\libucosii_bsp.a(os_mem.o)
 .debug_loc     0x0000bea1      0x1da ../SynthUnitTest_bsp/\libucosii_bsp.a(os_q.o)
 .debug_loc     0x0000c07b      0x158 ../SynthUnitTest_bsp/\libucosii_bsp.a(os_sem.o)
 .debug_loc     0x0000c1d3      0x207 ../SynthUnitTest_bsp/\libucosii_bsp.a(os_task.o)
 .debug_loc     0x0000c3da       0xd7 ../SynthUnitTest_bsp/\libucosii_bsp.a(os_time.o)
 .debug_loc     0x0000c4b1       0x81 ../SynthUnitTest_bsp/\libucosii_bsp.a(alt_sys_init.o)
 .debug_loc     0x0000c532      0x2db ../SynthUnitTest_bsp/\libucosii_bsp.a(altera_avalon_fifo_util.o)
 .debug_loc     0x0000c80d       0xac ../SynthUnitTest_bsp/\libucosii_bsp.a(altera_avalon_jtag_uart_fd.o)
 .debug_loc     0x0000c8b9       0xac ../SynthUnitTest_bsp/\libucosii_bsp.a(altera_avalon_jtag_uart_init.o)
 .debug_loc     0x0000c965       0x2b ../SynthUnitTest_bsp/\libucosii_bsp.a(altera_avalon_jtag_uart_ioctl.o)
 .debug_loc     0x0000c990       0x2c ../SynthUnitTest_bsp/\libucosii_bsp.a(altera_avalon_jtag_uart_read.o)
 .debug_loc     0x0000c9bc       0x2c ../SynthUnitTest_bsp/\libucosii_bsp.a(altera_avalon_jtag_uart_write.o)
 .debug_loc     0x0000c9e8       0x56 ../SynthUnitTest_bsp/\libucosii_bsp.a(altera_avalon_timer_sc.o)
 .debug_loc     0x0000ca3e      0x22f ../SynthUnitTest_bsp/\libucosii_bsp.a(altera_up_avalon_character_lcd.o)
 .debug_loc     0x0000cc6d       0x2b ../SynthUnitTest_bsp/\libucosii_bsp.a(alt_alarm_start.o)
 .debug_loc     0x0000cc98       0x2b ../SynthUnitTest_bsp/\libucosii_bsp.a(alt_dcache_flush_all.o)
 .debug_loc     0x0000ccc3       0x56 ../SynthUnitTest_bsp/\libucosii_bsp.a(alt_dev_llist_insert.o)
 .debug_loc     0x0000cd19       0x2b ../SynthUnitTest_bsp/\libucosii_bsp.a(alt_do_ctors.o)
 .debug_loc     0x0000cd44       0x2b ../SynthUnitTest_bsp/\libucosii_bsp.a(alt_do_dtors.o)
 .debug_loc     0x0000cd6f       0x2b ../SynthUnitTest_bsp/\libucosii_bsp.a(alt_find_dev.o)
 .debug_loc     0x0000cd9a       0x2b ../SynthUnitTest_bsp/\libucosii_bsp.a(alt_icache_flush_all.o)
 .debug_loc     0x0000cdc5       0xac ../SynthUnitTest_bsp/\libucosii_bsp.a(alt_iic.o)
 .debug_loc     0x0000ce71       0x2b ../SynthUnitTest_bsp/\libucosii_bsp.a(alt_iic_isr_register.o)
 .debug_loc     0x0000ce9c       0x56 ../SynthUnitTest_bsp/\libucosii_bsp.a(alt_io_redirect.o)
 .debug_loc     0x0000cef2       0x2b ../SynthUnitTest_bsp/\libucosii_bsp.a(alt_irq_handler.o)
 .debug_loc     0x0000cf1d       0x81 ../SynthUnitTest_bsp/\libucosii_bsp.a(alt_open.o)
 .debug_loc     0x0000cf9e       0x56 ../SynthUnitTest_bsp/\libucosii_bsp.a(alt_tick.o)
 .debug_loc     0x0000cff4       0x2b ../SynthUnitTest_bsp/\libucosii_bsp.a(altera_nios2_qsys_irq.o)
 .debug_loc     0x0000d01f      0x1ae ../SynthUnitTest_bsp/\libucosii_bsp.a(os_cpu_c.o)
 .debug_loc     0x0000d1cd       0x2b ../SynthUnitTest_bsp/\libucosii_bsp.a(alt_find_file.o)
 .debug_loc     0x0000d1f8       0x2b ../SynthUnitTest_bsp/\libucosii_bsp.a(alt_get_fd.o)
 .debug_loc     0x0000d223       0x2b ../SynthUnitTest_bsp/\libucosii_bsp.a(alt_icache_flush.o)
 .debug_loc     0x0000d24e       0x1e c:/altera/12.1sp1/nios2eds/bin/gnu/h-i686-mingw32/bin/../lib/gcc/nios2-elf/4.1.2/../../../../nios2-elf/lib\libc.a(lib_a-atexit.o)
 .debug_loc     0x0000d26c       0x3d c:/altera/12.1sp1/nios2eds/bin/gnu/h-i686-mingw32/bin/../lib/gcc/nios2-elf/4.1.2/../../../../nios2-elf/lib\libc.a(lib_a-exit.o)
 .debug_loc     0x0000d2a9      0x114 c:/altera/12.1sp1/nios2eds/bin/gnu/h-i686-mingw32/bin/../lib/gcc/nios2-elf/4.1.2/../../../../nios2-elf/lib\libc.a(lib_a-memcmp.o)
 .debug_loc     0x0000d3bd      0x120 c:/altera/12.1sp1/nios2eds/bin/gnu/h-i686-mingw32/bin/../lib/gcc/nios2-elf/4.1.2/../../../../nios2-elf/lib\libc.a(lib_a-__atexit.o)
 .debug_loc     0x0000d4dd      0x1cb c:/altera/12.1sp1/nios2eds/bin/gnu/h-i686-mingw32/bin/../lib/gcc/nios2-elf/4.1.2/../../../../nios2-elf/lib\libc.a(lib_a-__call_atexit.o)
 .debug_loc     0x0000d6a8       0x56 ../SynthUnitTest_bsp/\libucosii_bsp.a(alt_exit.o)

.debug_macinfo
 *(.debug_macinfo)

.debug_weaknames
 *(.debug_weaknames)

.debug_funcnames
 *(.debug_funcnames)

.debug_typenames
 *(.debug_typenames)

.debug_varnames
 *(.debug_varnames)

.debug_alt_sim_info
                0x00000000       0x30
 *(.debug_alt_sim_info)
 .debug_alt_sim_info
                0x00000000       0x30 ../SynthUnitTest_bsp//obj/HAL/src/crt0.o
                0x01000000                __alt_data_end = 0x1000000
                0x01000000                PROVIDE (__alt_stack_pointer, __alt_data_end)
                0x0081efe4                PROVIDE (__alt_stack_limit, __alt_stack_base)
                0x0081efe4                PROVIDE (__alt_heap_start, end)
                0x01000000                PROVIDE (__alt_heap_limit, 0x1000000)
OUTPUT(SynthUnitTest.elf elf32-littlenios2)

.debug_ranges   0x00000000      0x9a8
 .debug_ranges  0x00000000       0x20 ../SynthUnitTest_bsp//obj/HAL/src/crt0.o
 .debug_ranges  0x00000020      0x168 c:/altera/12.1sp1/nios2eds/bin/gnu/h-i686-mingw32/bin/../lib/gcc/nios2-elf/4.1.2/../../../../nios2-elf/lib\libc.a(lib_a-vfprintf.o)
 .debug_ranges  0x00000188       0x20 c:/altera/12.1sp1/nios2eds/bin/gnu/h-i686-mingw32/bin/../lib/gcc/nios2-elf/4.1.2/../../../../nios2-elf/lib\libc.a(lib_a-fflush.o)
 .debug_ranges  0x000001a8       0x28 c:/altera/12.1sp1/nios2eds/bin/gnu/h-i686-mingw32/bin/../lib/gcc/nios2-elf/4.1.2/../../../../nios2-elf/lib\libc.a(lib_a-fvwrite.o)
 .debug_ranges  0x000001d0       0xa0 c:/altera/12.1sp1/nios2eds/bin/gnu/h-i686-mingw32/bin/../lib/gcc/nios2-elf/4.1.2/../../../../nios2-elf/lib\libc.a(lib_a-fwalk.o)
 .debug_ranges  0x00000270       0x70 c:/altera/12.1sp1/nios2eds/bin/gnu/h-i686-mingw32/bin/../lib/gcc/nios2-elf/4.1.2/../../../../nios2-elf/lib\libc.a(lib_a-mallocr.o)
 .debug_ranges  0x000002e0      0x110 c:/altera/12.1sp1/nios2eds/bin/gnu/h-i686-mingw32/bin/../lib/gcc/nios2-elf/4.1.2/../../../../nios2-elf/lib\libc.a(lib_a-reallocr.o)
 .debug_ranges  0x000003f0       0x38 c:/altera/12.1sp1/nios2eds/bin/gnu/h-i686-mingw32/bin/../lib/gcc/nios2-elf/4.1.2/../../../../nios2-elf/lib\libc.a(lib_a-callocr.o)
 .debug_ranges  0x00000428      0x188 c:/altera/12.1sp1/nios2eds/bin/gnu/h-i686-mingw32/bin/../lib/gcc/nios2-elf/4.1.2\libgcc.a(_udivdi3.o)
 .debug_ranges  0x000005b0      0x198 c:/altera/12.1sp1/nios2eds/bin/gnu/h-i686-mingw32/bin/../lib/gcc/nios2-elf/4.1.2\libgcc.a(_umoddi3.o)
 .debug_ranges  0x00000748       0x30 c:/altera/12.1sp1/nios2eds/bin/gnu/h-i686-mingw32/bin/../lib/gcc/nios2-elf/4.1.2\libgcc.a(_addsub_df.o)
 .debug_ranges  0x00000778       0x88 c:/altera/12.1sp1/nios2eds/bin/gnu/h-i686-mingw32/bin/../lib/gcc/nios2-elf/4.1.2\libgcc.a(_mul_df.o)
 .debug_ranges  0x00000800       0x50 c:/altera/12.1sp1/nios2eds/bin/gnu/h-i686-mingw32/bin/../lib/gcc/nios2-elf/4.1.2\libgcc.a(_div_df.o)
 .debug_ranges  0x00000850       0x18 c:/altera/12.1sp1/nios2eds/bin/gnu/h-i686-mingw32/bin/../lib/gcc/nios2-elf/4.1.2\libgcc.a(_usi_to_df.o)
 .debug_ranges  0x00000868       0x68 c:/altera/12.1sp1/nios2eds/bin/gnu/h-i686-mingw32/bin/../lib/gcc/nios2-elf/4.1.2\libgcc.a(_muldi3.o)
 .debug_ranges  0x000008d0       0x28 c:/altera/12.1sp1/nios2eds/bin/gnu/h-i686-mingw32/bin/../lib/gcc/nios2-elf/4.1.2\libgcc.a(_clzsi2.o)
 .debug_ranges  0x000008f8       0x28 c:/altera/12.1sp1/nios2eds/bin/gnu/h-i686-mingw32/bin/../lib/gcc/nios2-elf/4.1.2\libgcc.a(_pack_df.o)
 .debug_ranges  0x00000920       0x18 ../SynthUnitTest_bsp/\libucosii_bsp.a(altera_avalon_jtag_uart_init.o)
 .debug_ranges  0x00000938       0x28 ../SynthUnitTest_bsp/\libucosii_bsp.a(alt_irq_entry.o)
 .debug_ranges  0x00000960       0x30 ../SynthUnitTest_bsp/\libucosii_bsp.a(alt_exception_entry.o)
 .debug_ranges  0x00000990       0x18 c:/altera/12.1sp1/nios2eds/bin/gnu/h-i686-mingw32/bin/../lib/gcc/nios2-elf/4.1.2/../../../../nios2-elf/lib\libc.a(lib_a-__call_atexit.o)
