Archive member included because of file (symbol)

c:/altera/12.1sp1/nios2eds/bin/gnu/h-i686-mingw32/bin/../lib/gcc/nios2-elf/4.1.2/../../../../nios2-elf/lib\libc.a(lib_a-puts.o)
                              obj/default/hello_ucosii.o (puts)
c:/altera/12.1sp1/nios2eds/bin/gnu/h-i686-mingw32/bin/../lib/gcc/nios2-elf/4.1.2/../../../../nios2-elf/lib\libc.a(lib_a-strlen.o)
                              c:/altera/12.1sp1/nios2eds/bin/gnu/h-i686-mingw32/bin/../lib/gcc/nios2-elf/4.1.2/../../../../nios2-elf/lib\libc.a(lib_a-puts.o) (strlen)
c:/altera/12.1sp1/nios2eds/bin/gnu/h-i686-mingw32/bin/../lib/gcc/nios2-elf/4.1.2/../../../../nios2-elf/lib\libc.a(lib_a-fvwrite.o)
                              c:/altera/12.1sp1/nios2eds/bin/gnu/h-i686-mingw32/bin/../lib/gcc/nios2-elf/4.1.2/../../../../nios2-elf/lib\libc.a(lib_a-puts.o) (__sfvwrite_r)
c:/altera/12.1sp1/nios2eds/bin/gnu/h-i686-mingw32/bin/../lib/gcc/nios2-elf/4.1.2/../../../../nios2-elf/lib\libc.a(lib_a-impure.o)
                              c:/altera/12.1sp1/nios2eds/bin/gnu/h-i686-mingw32/bin/../lib/gcc/nios2-elf/4.1.2/../../../../nios2-elf/lib\libc.a(lib_a-puts.o) (_impure_ptr)
c:/altera/12.1sp1/nios2eds/bin/gnu/h-i686-mingw32/bin/../lib/gcc/nios2-elf/4.1.2/../../../../nios2-elf/lib\libc.a(lib_a-mallocr.o)
                              c:/altera/12.1sp1/nios2eds/bin/gnu/h-i686-mingw32/bin/../lib/gcc/nios2-elf/4.1.2/../../../../nios2-elf/lib\libc.a(lib_a-fvwrite.o) (_malloc_r)
c:/altera/12.1sp1/nios2eds/bin/gnu/h-i686-mingw32/bin/../lib/gcc/nios2-elf/4.1.2/../../../../nios2-elf/lib\libc.a(lib_a-memchr.o)
                              c:/altera/12.1sp1/nios2eds/bin/gnu/h-i686-mingw32/bin/../lib/gcc/nios2-elf/4.1.2/../../../../nios2-elf/lib\libc.a(lib_a-fvwrite.o) (memchr)
c:/altera/12.1sp1/nios2eds/bin/gnu/h-i686-mingw32/bin/../lib/gcc/nios2-elf/4.1.2/../../../../nios2-elf/lib\libc.a(lib_a-memcpy.o)
                              c:/altera/12.1sp1/nios2eds/bin/gnu/h-i686-mingw32/bin/../lib/gcc/nios2-elf/4.1.2/../../../../nios2-elf/lib\libc.a(lib_a-fvwrite.o) (memcpy)
c:/altera/12.1sp1/nios2eds/bin/gnu/h-i686-mingw32/bin/../lib/gcc/nios2-elf/4.1.2/../../../../nios2-elf/lib\libc.a(lib_a-memmove.o)
                              c:/altera/12.1sp1/nios2eds/bin/gnu/h-i686-mingw32/bin/../lib/gcc/nios2-elf/4.1.2/../../../../nios2-elf/lib\libc.a(lib_a-fvwrite.o) (memmove)
c:/altera/12.1sp1/nios2eds/bin/gnu/h-i686-mingw32/bin/../lib/gcc/nios2-elf/4.1.2/../../../../nios2-elf/lib\libc.a(lib_a-reallocr.o)
                              c:/altera/12.1sp1/nios2eds/bin/gnu/h-i686-mingw32/bin/../lib/gcc/nios2-elf/4.1.2/../../../../nios2-elf/lib\libc.a(lib_a-fvwrite.o) (_realloc_r)
c:/altera/12.1sp1/nios2eds/bin/gnu/h-i686-mingw32/bin/../lib/gcc/nios2-elf/4.1.2/../../../../nios2-elf/lib\libc.a(lib_a-sbrkr.o)
                              c:/altera/12.1sp1/nios2eds/bin/gnu/h-i686-mingw32/bin/../lib/gcc/nios2-elf/4.1.2/../../../../nios2-elf/lib\libc.a(lib_a-mallocr.o) (_sbrk_r)
c:/altera/12.1sp1/nios2eds/bin/gnu/h-i686-mingw32/bin/../lib/gcc/nios2-elf/4.1.2/../../../../nios2-elf/lib\libc.a(lib_a-wsetup.o)
                              c:/altera/12.1sp1/nios2eds/bin/gnu/h-i686-mingw32/bin/../lib/gcc/nios2-elf/4.1.2/../../../../nios2-elf/lib\libc.a(lib_a-fvwrite.o) (__swsetup_r)
c:/altera/12.1sp1/nios2eds/bin/gnu/h-i686-mingw32/bin/../lib/gcc/nios2-elf/4.1.2/../../../../nios2-elf/lib\libc.a(lib_a-fflush.o)
                              c:/altera/12.1sp1/nios2eds/bin/gnu/h-i686-mingw32/bin/../lib/gcc/nios2-elf/4.1.2/../../../../nios2-elf/lib\libc.a(lib_a-fvwrite.o) (_fflush_r)
c:/altera/12.1sp1/nios2eds/bin/gnu/h-i686-mingw32/bin/../lib/gcc/nios2-elf/4.1.2/../../../../nios2-elf/lib\libc.a(lib_a-findfp.o)
                              c:/altera/12.1sp1/nios2eds/bin/gnu/h-i686-mingw32/bin/../lib/gcc/nios2-elf/4.1.2/../../../../nios2-elf/lib\libc.a(lib_a-wsetup.o) (__sinit)
c:/altera/12.1sp1/nios2eds/bin/gnu/h-i686-mingw32/bin/../lib/gcc/nios2-elf/4.1.2/../../../../nios2-elf/lib\libc.a(lib_a-freer.o)
                              c:/altera/12.1sp1/nios2eds/bin/gnu/h-i686-mingw32/bin/../lib/gcc/nios2-elf/4.1.2/../../../../nios2-elf/lib\libc.a(lib_a-fvwrite.o) (_free_r)
c:/altera/12.1sp1/nios2eds/bin/gnu/h-i686-mingw32/bin/../lib/gcc/nios2-elf/4.1.2/../../../../nios2-elf/lib\libc.a(lib_a-fwalk.o)
                              c:/altera/12.1sp1/nios2eds/bin/gnu/h-i686-mingw32/bin/../lib/gcc/nios2-elf/4.1.2/../../../../nios2-elf/lib\libc.a(lib_a-fflush.o) (_fwalk_reent)
c:/altera/12.1sp1/nios2eds/bin/gnu/h-i686-mingw32/bin/../lib/gcc/nios2-elf/4.1.2/../../../../nios2-elf/lib\libc.a(lib_a-int_errno.o)
                              c:/altera/12.1sp1/nios2eds/bin/gnu/h-i686-mingw32/bin/../lib/gcc/nios2-elf/4.1.2/../../../../nios2-elf/lib\libc.a(lib_a-sbrkr.o) (errno)
c:/altera/12.1sp1/nios2eds/bin/gnu/h-i686-mingw32/bin/../lib/gcc/nios2-elf/4.1.2/../../../../nios2-elf/lib\libc.a(lib_a-makebuf.o)
                              c:/altera/12.1sp1/nios2eds/bin/gnu/h-i686-mingw32/bin/../lib/gcc/nios2-elf/4.1.2/../../../../nios2-elf/lib\libc.a(lib_a-wsetup.o) (__smakebuf_r)
c:/altera/12.1sp1/nios2eds/bin/gnu/h-i686-mingw32/bin/../lib/gcc/nios2-elf/4.1.2/../../../../nios2-elf/lib\libc.a(lib_a-memset.o)
                              c:/altera/12.1sp1/nios2eds/bin/gnu/h-i686-mingw32/bin/../lib/gcc/nios2-elf/4.1.2/../../../../nios2-elf/lib\libc.a(lib_a-findfp.o) (memset)
c:/altera/12.1sp1/nios2eds/bin/gnu/h-i686-mingw32/bin/../lib/gcc/nios2-elf/4.1.2/../../../../nios2-elf/lib\libc.a(lib_a-stdio.o)
                              c:/altera/12.1sp1/nios2eds/bin/gnu/h-i686-mingw32/bin/../lib/gcc/nios2-elf/4.1.2/../../../../nios2-elf/lib\libc.a(lib_a-findfp.o) (__sclose)
c:/altera/12.1sp1/nios2eds/bin/gnu/h-i686-mingw32/bin/../lib/gcc/nios2-elf/4.1.2/../../../../nios2-elf/lib\libc.a(lib_a-writer.o)
                              c:/altera/12.1sp1/nios2eds/bin/gnu/h-i686-mingw32/bin/../lib/gcc/nios2-elf/4.1.2/../../../../nios2-elf/lib\libc.a(lib_a-stdio.o) (_write_r)
c:/altera/12.1sp1/nios2eds/bin/gnu/h-i686-mingw32/bin/../lib/gcc/nios2-elf/4.1.2/../../../../nios2-elf/lib\libc.a(lib_a-closer.o)
                              c:/altera/12.1sp1/nios2eds/bin/gnu/h-i686-mingw32/bin/../lib/gcc/nios2-elf/4.1.2/../../../../nios2-elf/lib\libc.a(lib_a-stdio.o) (_close_r)
c:/altera/12.1sp1/nios2eds/bin/gnu/h-i686-mingw32/bin/../lib/gcc/nios2-elf/4.1.2/../../../../nios2-elf/lib\libc.a(lib_a-fclose.o)
                              c:/altera/12.1sp1/nios2eds/bin/gnu/h-i686-mingw32/bin/../lib/gcc/nios2-elf/4.1.2/../../../../nios2-elf/lib\libc.a(lib_a-findfp.o) (fclose)
c:/altera/12.1sp1/nios2eds/bin/gnu/h-i686-mingw32/bin/../lib/gcc/nios2-elf/4.1.2/../../../../nios2-elf/lib\libc.a(lib_a-fstatr.o)
                              c:/altera/12.1sp1/nios2eds/bin/gnu/h-i686-mingw32/bin/../lib/gcc/nios2-elf/4.1.2/../../../../nios2-elf/lib\libc.a(lib_a-makebuf.o) (_fstat_r)
c:/altera/12.1sp1/nios2eds/bin/gnu/h-i686-mingw32/bin/../lib/gcc/nios2-elf/4.1.2/../../../../nios2-elf/lib\libc.a(lib_a-isattyr.o)
                              c:/altera/12.1sp1/nios2eds/bin/gnu/h-i686-mingw32/bin/../lib/gcc/nios2-elf/4.1.2/../../../../nios2-elf/lib\libc.a(lib_a-makebuf.o) (_isatty_r)
c:/altera/12.1sp1/nios2eds/bin/gnu/h-i686-mingw32/bin/../lib/gcc/nios2-elf/4.1.2/../../../../nios2-elf/lib\libc.a(lib_a-lseekr.o)
                              c:/altera/12.1sp1/nios2eds/bin/gnu/h-i686-mingw32/bin/../lib/gcc/nios2-elf/4.1.2/../../../../nios2-elf/lib\libc.a(lib_a-stdio.o) (_lseek_r)
c:/altera/12.1sp1/nios2eds/bin/gnu/h-i686-mingw32/bin/../lib/gcc/nios2-elf/4.1.2/../../../../nios2-elf/lib\libc.a(lib_a-readr.o)
                              c:/altera/12.1sp1/nios2eds/bin/gnu/h-i686-mingw32/bin/../lib/gcc/nios2-elf/4.1.2/../../../../nios2-elf/lib\libc.a(lib_a-stdio.o) (_read_r)
../SynthesizerUnitTestV3_bsp/\libucosii_bsp.a(alt_close.o)
                              c:/altera/12.1sp1/nios2eds/bin/gnu/h-i686-mingw32/bin/../lib/gcc/nios2-elf/4.1.2/../../../../nios2-elf/lib\libc.a(lib_a-closer.o) (close)
../SynthesizerUnitTestV3_bsp/\libucosii_bsp.a(alt_dev.o)
                              ../SynthesizerUnitTestV3_bsp/\libucosii_bsp.a(alt_close.o) (alt_fd_list)
../SynthesizerUnitTestV3_bsp/\libucosii_bsp.a(alt_errno.o)
                              ../SynthesizerUnitTestV3_bsp/\libucosii_bsp.a(alt_close.o) (alt_errno)
../SynthesizerUnitTestV3_bsp/\libucosii_bsp.a(alt_fstat.o)
                              c:/altera/12.1sp1/nios2eds/bin/gnu/h-i686-mingw32/bin/../lib/gcc/nios2-elf/4.1.2/../../../../nios2-elf/lib\libc.a(lib_a-fstatr.o) (fstat)
../SynthesizerUnitTestV3_bsp/\libucosii_bsp.a(alt_isatty.o)
                              c:/altera/12.1sp1/nios2eds/bin/gnu/h-i686-mingw32/bin/../lib/gcc/nios2-elf/4.1.2/../../../../nios2-elf/lib\libc.a(lib_a-isattyr.o) (isatty)
../SynthesizerUnitTestV3_bsp/\libucosii_bsp.a(alt_load.o)
                              ../SynthesizerUnitTestV3_bsp//obj/HAL/src/crt0.o (alt_load)
../SynthesizerUnitTestV3_bsp/\libucosii_bsp.a(alt_lseek.o)
                              c:/altera/12.1sp1/nios2eds/bin/gnu/h-i686-mingw32/bin/../lib/gcc/nios2-elf/4.1.2/../../../../nios2-elf/lib\libc.a(lib_a-lseekr.o) (lseek)
../SynthesizerUnitTestV3_bsp/\libucosii_bsp.a(alt_main.o)
                              ../SynthesizerUnitTestV3_bsp//obj/HAL/src/crt0.o (alt_main)
../SynthesizerUnitTestV3_bsp/\libucosii_bsp.a(alt_read.o)
                              c:/altera/12.1sp1/nios2eds/bin/gnu/h-i686-mingw32/bin/../lib/gcc/nios2-elf/4.1.2/../../../../nios2-elf/lib\libc.a(lib_a-readr.o) (read)
../SynthesizerUnitTestV3_bsp/\libucosii_bsp.a(alt_release_fd.o)
                              ../SynthesizerUnitTestV3_bsp/\libucosii_bsp.a(alt_close.o) (alt_release_fd)
../SynthesizerUnitTestV3_bsp/\libucosii_bsp.a(alt_sbrk.o)
                              c:/altera/12.1sp1/nios2eds/bin/gnu/h-i686-mingw32/bin/../lib/gcc/nios2-elf/4.1.2/../../../../nios2-elf/lib\libc.a(lib_a-sbrkr.o) (sbrk)
../SynthesizerUnitTestV3_bsp/\libucosii_bsp.a(alt_write.o)
                              c:/altera/12.1sp1/nios2eds/bin/gnu/h-i686-mingw32/bin/../lib/gcc/nios2-elf/4.1.2/../../../../nios2-elf/lib\libc.a(lib_a-writer.o) (write)
../SynthesizerUnitTestV3_bsp/\libucosii_bsp.a(alt_env_lock.o)
                              ../SynthesizerUnitTestV3_bsp/\libucosii_bsp.a(alt_main.o) (alt_envsem)
../SynthesizerUnitTestV3_bsp/\libucosii_bsp.a(alt_malloc_lock.o)
                              c:/altera/12.1sp1/nios2eds/bin/gnu/h-i686-mingw32/bin/../lib/gcc/nios2-elf/4.1.2/../../../../nios2-elf/lib\libc.a(lib_a-mallocr.o) (__malloc_lock)
../SynthesizerUnitTestV3_bsp/\libucosii_bsp.a(os_core.o)
                              ../SynthesizerUnitTestV3_bsp/\libucosii_bsp.a(alt_main.o) (OSInit)
../SynthesizerUnitTestV3_bsp/\libucosii_bsp.a(os_dbg.o)
                              ../SynthesizerUnitTestV3_bsp/\libucosii_bsp.a(os_core.o) (OSDebugInit)
../SynthesizerUnitTestV3_bsp/\libucosii_bsp.a(os_flag.o)
                              ../SynthesizerUnitTestV3_bsp/\libucosii_bsp.a(os_core.o) (OS_FlagInit)
../SynthesizerUnitTestV3_bsp/\libucosii_bsp.a(os_mem.o)
                              ../SynthesizerUnitTestV3_bsp/\libucosii_bsp.a(os_core.o) (OS_MemInit)
../SynthesizerUnitTestV3_bsp/\libucosii_bsp.a(os_q.o)
                              ../SynthesizerUnitTestV3_bsp/\libucosii_bsp.a(os_core.o) (OS_QInit)
../SynthesizerUnitTestV3_bsp/\libucosii_bsp.a(os_sem.o)
                              ../SynthesizerUnitTestV3_bsp/\libucosii_bsp.a(alt_main.o) (OSSemCreate)
../SynthesizerUnitTestV3_bsp/\libucosii_bsp.a(os_task.o)
                              obj/default/hello_ucosii.o (OSTaskCreateExt)
../SynthesizerUnitTestV3_bsp/\libucosii_bsp.a(os_time.o)
                              ../SynthesizerUnitTestV3_bsp/\libucosii_bsp.a(os_core.o) (OSTimeDly)
../SynthesizerUnitTestV3_bsp/\libucosii_bsp.a(alt_sys_init.o)
                              ../SynthesizerUnitTestV3_bsp/\libucosii_bsp.a(alt_main.o) (alt_irq_init)
../SynthesizerUnitTestV3_bsp/\libucosii_bsp.a(altera_avalon_fifo_util.o)
                              obj/default/hello_ucosii.o (altera_avalon_fifo_init)
../SynthesizerUnitTestV3_bsp/\libucosii_bsp.a(altera_avalon_jtag_uart_fd.o)
                              ../SynthesizerUnitTestV3_bsp/\libucosii_bsp.a(alt_sys_init.o) (altera_avalon_jtag_uart_read_fd)
../SynthesizerUnitTestV3_bsp/\libucosii_bsp.a(altera_avalon_jtag_uart_init.o)
                              ../SynthesizerUnitTestV3_bsp/\libucosii_bsp.a(alt_sys_init.o) (altera_avalon_jtag_uart_init)
../SynthesizerUnitTestV3_bsp/\libucosii_bsp.a(altera_avalon_jtag_uart_ioctl.o)
                              ../SynthesizerUnitTestV3_bsp/\libucosii_bsp.a(altera_avalon_jtag_uart_fd.o) (altera_avalon_jtag_uart_ioctl)
../SynthesizerUnitTestV3_bsp/\libucosii_bsp.a(altera_avalon_jtag_uart_read.o)
                              ../SynthesizerUnitTestV3_bsp/\libucosii_bsp.a(altera_avalon_jtag_uart_fd.o) (altera_avalon_jtag_uart_read)
../SynthesizerUnitTestV3_bsp/\libucosii_bsp.a(altera_avalon_jtag_uart_write.o)
                              ../SynthesizerUnitTestV3_bsp/\libucosii_bsp.a(altera_avalon_jtag_uart_fd.o) (altera_avalon_jtag_uart_write)
../SynthesizerUnitTestV3_bsp/\libucosii_bsp.a(altera_avalon_timer_sc.o)
                              ../SynthesizerUnitTestV3_bsp/\libucosii_bsp.a(alt_sys_init.o) (alt_avalon_timer_sc_init)
../SynthesizerUnitTestV3_bsp/\libucosii_bsp.a(altera_up_avalon_audio.o)
                              obj/default/hello_ucosii.o (alt_up_audio_open_dev)
../SynthesizerUnitTestV3_bsp/\libucosii_bsp.a(altera_up_avalon_audio_and_video_config.o)
                              obj/default/hello_ucosii.o (alt_up_av_config_open_dev)
../SynthesizerUnitTestV3_bsp/\libucosii_bsp.a(altera_up_avalon_character_lcd.o)
                              ../SynthesizerUnitTestV3_bsp/\libucosii_bsp.a(alt_sys_init.o) (alt_up_character_lcd_init)
../SynthesizerUnitTestV3_bsp/\libucosii_bsp.a(alt_alarm_start.o)
                              ../SynthesizerUnitTestV3_bsp/\libucosii_bsp.a(altera_avalon_jtag_uart_init.o) (alt_alarm_start)
../SynthesizerUnitTestV3_bsp/\libucosii_bsp.a(alt_dcache_flush_all.o)
                              ../SynthesizerUnitTestV3_bsp/\libucosii_bsp.a(alt_load.o) (alt_dcache_flush_all)
../SynthesizerUnitTestV3_bsp/\libucosii_bsp.a(alt_dev_llist_insert.o)
                              ../SynthesizerUnitTestV3_bsp/\libucosii_bsp.a(alt_sys_init.o) (alt_dev_llist_insert)
../SynthesizerUnitTestV3_bsp/\libucosii_bsp.a(alt_do_ctors.o)
                              ../SynthesizerUnitTestV3_bsp/\libucosii_bsp.a(alt_main.o) (_do_ctors)
../SynthesizerUnitTestV3_bsp/\libucosii_bsp.a(alt_do_dtors.o)
                              ../SynthesizerUnitTestV3_bsp/\libucosii_bsp.a(alt_main.o) (_do_dtors)
../SynthesizerUnitTestV3_bsp/\libucosii_bsp.a(alt_find_dev.o)
                              ../SynthesizerUnitTestV3_bsp/\libucosii_bsp.a(altera_up_avalon_audio.o) (alt_find_dev)
../SynthesizerUnitTestV3_bsp/\libucosii_bsp.a(alt_icache_flush_all.o)
                              ../SynthesizerUnitTestV3_bsp/\libucosii_bsp.a(alt_load.o) (alt_icache_flush_all)
../SynthesizerUnitTestV3_bsp/\libucosii_bsp.a(alt_io_redirect.o)
                              ../SynthesizerUnitTestV3_bsp/\libucosii_bsp.a(alt_main.o) (alt_io_redirect)
../SynthesizerUnitTestV3_bsp/\libucosii_bsp.a(alt_irq_register.o)
                              ../SynthesizerUnitTestV3_bsp/\libucosii_bsp.a(altera_avalon_jtag_uart_init.o) (alt_irq_register)
../SynthesizerUnitTestV3_bsp/\libucosii_bsp.a(alt_irq_vars.o)
                              ../SynthesizerUnitTestV3_bsp/\libucosii_bsp.a(alt_irq_register.o) (alt_irq_active)
../SynthesizerUnitTestV3_bsp/\libucosii_bsp.a(alt_open.o)
                              ../SynthesizerUnitTestV3_bsp/\libucosii_bsp.a(alt_io_redirect.o) (open)
../SynthesizerUnitTestV3_bsp/\libucosii_bsp.a(alt_tick.o)
                              ../SynthesizerUnitTestV3_bsp/\libucosii_bsp.a(altera_avalon_jtag_uart_init.o) (_alt_tick_rate)
../SynthesizerUnitTestV3_bsp/\libucosii_bsp.a(altera_nios2_qsys_irq.o)
                              ../SynthesizerUnitTestV3_bsp/\libucosii_bsp.a(alt_sys_init.o) (altera_nios2_qsys_irq_init)
../SynthesizerUnitTestV3_bsp/\libucosii_bsp.a(os_cpu_a.o)
                              ../SynthesizerUnitTestV3_bsp/\libucosii_bsp.a(os_core.o) (OSIntCtxSw)
../SynthesizerUnitTestV3_bsp/\libucosii_bsp.a(os_cpu_c.o)
                              ../SynthesizerUnitTestV3_bsp/\libucosii_bsp.a(os_task.o) (OSTaskStkInit)
../SynthesizerUnitTestV3_bsp/\libucosii_bsp.a(alt_find_file.o)
                              ../SynthesizerUnitTestV3_bsp/\libucosii_bsp.a(alt_open.o) (alt_find_file)
../SynthesizerUnitTestV3_bsp/\libucosii_bsp.a(alt_get_fd.o)
                              ../SynthesizerUnitTestV3_bsp/\libucosii_bsp.a(alt_open.o) (alt_get_fd)
../SynthesizerUnitTestV3_bsp/\libucosii_bsp.a(alt_icache_flush.o)
                              ../SynthesizerUnitTestV3_bsp/\libucosii_bsp.a(alt_icache_flush_all.o) (alt_icache_flush)
../SynthesizerUnitTestV3_bsp/\libucosii_bsp.a(alt_irq_entry.o)
                              ../SynthesizerUnitTestV3_bsp/\libucosii_bsp.a(alt_irq_register.o) (alt_irq_entry)
../SynthesizerUnitTestV3_bsp/\libucosii_bsp.a(alt_irq_handler.o)
                              ../SynthesizerUnitTestV3_bsp/\libucosii_bsp.a(alt_irq_register.o) (alt_irq_handler)
../SynthesizerUnitTestV3_bsp/\libucosii_bsp.a(alt_exception_entry.o)
                              ../SynthesizerUnitTestV3_bsp/\libucosii_bsp.a(alt_irq_entry.o) (alt_exception)
c:/altera/12.1sp1/nios2eds/bin/gnu/h-i686-mingw32/bin/../lib/gcc/nios2-elf/4.1.2/../../../../nios2-elf/lib\libc.a(lib_a-atexit.o)
                              ../SynthesizerUnitTestV3_bsp/\libucosii_bsp.a(alt_main.o) (atexit)
c:/altera/12.1sp1/nios2eds/bin/gnu/h-i686-mingw32/bin/../lib/gcc/nios2-elf/4.1.2/../../../../nios2-elf/lib\libc.a(lib_a-exit.o)
                              ../SynthesizerUnitTestV3_bsp/\libucosii_bsp.a(alt_main.o) (exit)
c:/altera/12.1sp1/nios2eds/bin/gnu/h-i686-mingw32/bin/../lib/gcc/nios2-elf/4.1.2/../../../../nios2-elf/lib\libc.a(lib_a-memcmp.o)
                              ../SynthesizerUnitTestV3_bsp/\libucosii_bsp.a(alt_find_dev.o) (memcmp)
c:/altera/12.1sp1/nios2eds/bin/gnu/h-i686-mingw32/bin/../lib/gcc/nios2-elf/4.1.2/../../../../nios2-elf/lib\libc.a(lib_a-__atexit.o)
                              c:/altera/12.1sp1/nios2eds/bin/gnu/h-i686-mingw32/bin/../lib/gcc/nios2-elf/4.1.2/../../../../nios2-elf/lib\libc.a(lib_a-atexit.o) (__register_exitproc)
c:/altera/12.1sp1/nios2eds/bin/gnu/h-i686-mingw32/bin/../lib/gcc/nios2-elf/4.1.2/../../../../nios2-elf/lib\libc.a(lib_a-__call_atexit.o)
                              c:/altera/12.1sp1/nios2eds/bin/gnu/h-i686-mingw32/bin/../lib/gcc/nios2-elf/4.1.2/../../../../nios2-elf/lib\libc.a(lib_a-exit.o) (__call_exitprocs)
c:/altera/12.1sp1/nios2eds/bin/gnu/h-i686-mingw32/bin/../lib/gcc/nios2-elf/4.1.2\libgcc.a(lib2-divmod.o)
                              ../SynthesizerUnitTestV3_bsp/\libucosii_bsp.a(os_core.o) (__udivsi3)
../SynthesizerUnitTestV3_bsp/\libucosii_bsp.a(alt_exit.o)
                              c:/altera/12.1sp1/nios2eds/bin/gnu/h-i686-mingw32/bin/../lib/gcc/nios2-elf/4.1.2/../../../../nios2-elf/lib\libc.a(lib_a-exit.o) (_exit)

Allocating common symbols
Common symbol       size              file

alt_irq             0x100             ../SynthesizerUnitTestV3_bsp/\libucosii_bsp.a(alt_irq_handler.o)
task1_stk           0x2000            obj/default/hello_ucosii.o
OSLockNesting       0x1               ../SynthesizerUnitTestV3_bsp/\libucosii_bsp.a(os_core.o)
OSRunning           0x1               ../SynthesizerUnitTestV3_bsp/\libucosii_bsp.a(os_core.o)
OSIdleCtr           0x4               ../SynthesizerUnitTestV3_bsp/\libucosii_bsp.a(os_core.o)
OSPrioHighRdy       0x1               ../SynthesizerUnitTestV3_bsp/\libucosii_bsp.a(os_core.o)
errno               0x4               c:/altera/12.1sp1/nios2eds/bin/gnu/h-i686-mingw32/bin/../lib/gcc/nios2-elf/4.1.2/../../../../nios2-elf/lib\libc.a(lib_a-int_errno.o)
alt_heapsem         0x4               ../SynthesizerUnitTestV3_bsp/\libucosii_bsp.a(alt_malloc_lock.o)
OSFlagTbl           0x370             ../SynthesizerUnitTestV3_bsp/\libucosii_bsp.a(os_core.o)
OSPrioCur           0x1               ../SynthesizerUnitTestV3_bsp/\libucosii_bsp.a(os_core.o)
OSTCBList           0x4               ../SynthesizerUnitTestV3_bsp/\libucosii_bsp.a(os_core.o)
alt_fd_list_lock    0x4               ../SynthesizerUnitTestV3_bsp/\libucosii_bsp.a(alt_dev.o)
OSMemTbl            0xc30             ../SynthesizerUnitTestV3_bsp/\libucosii_bsp.a(os_core.o)
OSTickStepState     0x1               ../SynthesizerUnitTestV3_bsp/\libucosii_bsp.a(os_core.o)
OSTaskStatStk       0x800             ../SynthesizerUnitTestV3_bsp/\libucosii_bsp.a(os_core.o)
OSCtxSwCtr          0x4               ../SynthesizerUnitTestV3_bsp/\libucosii_bsp.a(os_core.o)
OSIdleCtrMax        0x4               ../SynthesizerUnitTestV3_bsp/\libucosii_bsp.a(os_core.o)
OSTCBFreeList       0x4               ../SynthesizerUnitTestV3_bsp/\libucosii_bsp.a(os_core.o)
OSCPUUsage          0x1               ../SynthesizerUnitTestV3_bsp/\libucosii_bsp.a(os_core.o)
OSTaskCtr           0x1               ../SynthesizerUnitTestV3_bsp/\libucosii_bsp.a(os_core.o)
OSMemFreeList       0x4               ../SynthesizerUnitTestV3_bsp/\libucosii_bsp.a(os_core.o)
OSQTbl              0x1e0             ../SynthesizerUnitTestV3_bsp/\libucosii_bsp.a(os_core.o)
OSTCBHighRdy        0x4               ../SynthesizerUnitTestV3_bsp/\libucosii_bsp.a(os_core.o)
OSQFreeList         0x4               ../SynthesizerUnitTestV3_bsp/\libucosii_bsp.a(os_core.o)
OSRdyGrp            0x1               ../SynthesizerUnitTestV3_bsp/\libucosii_bsp.a(os_core.o)
task2_stk           0x2000            obj/default/hello_ucosii.o
_atexit0            0x190             c:/altera/12.1sp1/nios2eds/bin/gnu/h-i686-mingw32/bin/../lib/gcc/nios2-elf/4.1.2/../../../../nios2-elf/lib\libc.a(lib_a-atexit.o)
OSRdyTbl            0x3               ../SynthesizerUnitTestV3_bsp/\libucosii_bsp.a(os_core.o)
OSEventFreeList     0x4               ../SynthesizerUnitTestV3_bsp/\libucosii_bsp.a(os_core.o)
OSIntNesting        0x1               ../SynthesizerUnitTestV3_bsp/\libucosii_bsp.a(os_core.o)
OSTCBCur            0x4               ../SynthesizerUnitTestV3_bsp/\libucosii_bsp.a(os_core.o)
OSTime              0x4               ../SynthesizerUnitTestV3_bsp/\libucosii_bsp.a(os_core.o)
OSTaskIdleStk       0x800             ../SynthesizerUnitTestV3_bsp/\libucosii_bsp.a(os_core.o)
OSEventTbl          0xb40             ../SynthesizerUnitTestV3_bsp/\libucosii_bsp.a(os_core.o)
OSTCBTbl            0x510             ../SynthesizerUnitTestV3_bsp/\libucosii_bsp.a(os_core.o)
OSFlagFreeList      0x4               ../SynthesizerUnitTestV3_bsp/\libucosii_bsp.a(os_core.o)
OSStatRdy           0x1               ../SynthesizerUnitTestV3_bsp/\libucosii_bsp.a(os_core.o)
OSTCBPrioTbl        0x54              ../SynthesizerUnitTestV3_bsp/\libucosii_bsp.a(os_core.o)
alt_envsem          0x4               ../SynthesizerUnitTestV3_bsp/\libucosii_bsp.a(alt_env_lock.o)
OSIdleCtrRun        0x4               ../SynthesizerUnitTestV3_bsp/\libucosii_bsp.a(os_core.o)

Memory Configuration

Name             Origin             Length             Attributes
sdram_0          0x00800000         0x00800000
sram_0           0x01080000         0x00080000
reset            0x01104000         0x00000020
onchip_memory2_0 0x01104020         0x00003fe0
*default*        0x00000000         0xffffffff

Linker script and memory map

LOAD ../SynthesizerUnitTestV3_bsp//obj/HAL/src/crt0.o
LOAD obj/default/hello_ucosii.o
LOAD c:/altera/12.1sp1/nios2eds/bin/gnu/h-i686-mingw32/bin/../lib/gcc/nios2-elf/4.1.2/../../../../nios2-elf/lib\libstdc++.a
LOAD c:/altera/12.1sp1/nios2eds/bin/gnu/h-i686-mingw32/bin/../lib/gcc/nios2-elf/4.1.2/../../../../nios2-elf/lib\libm.a
LOAD c:/altera/12.1sp1/nios2eds/bin/gnu/h-i686-mingw32/bin/../lib/gcc/nios2-elf/4.1.2\libgcc.a
START GROUP
LOAD c:/altera/12.1sp1/nios2eds/bin/gnu/h-i686-mingw32/bin/../lib/gcc/nios2-elf/4.1.2/../../../../nios2-elf/lib\libc.a
LOAD c:/altera/12.1sp1/nios2eds/bin/gnu/h-i686-mingw32/bin/../lib/gcc/nios2-elf/4.1.2\libgcc.a
LOAD ../SynthesizerUnitTestV3_bsp/\libucosii_bsp.a
END GROUP
LOAD c:/altera/12.1sp1/nios2eds/bin/gnu/h-i686-mingw32/bin/../lib/gcc/nios2-elf/4.1.2\libgcc.a
                0x00800000                __alt_mem_sdram_0 = 0x800000
                0x01080000                __alt_mem_sram_0 = 0x1080000
                0x01104000                __alt_mem_onchip_memory2_0 = 0x1104000

.entry          0x01104000       0x20
 *(.entry)
 .entry         0x01104000       0x20 ../SynthesizerUnitTestV3_bsp//obj/HAL/src/crt0.o
                0x01104000                __reset

.exceptions     0x01104020      0x1a0 load address 0x00800000
                0x01104020                PROVIDE (__ram_exceptions_start, ABSOLUTE (.))
                0x01104020                . = ALIGN (0x20)
 *(.irq)
 *(.exceptions.entry.label)
 .exceptions.entry.label
                0x01104020        0x0 ../SynthesizerUnitTestV3_bsp/\libucosii_bsp.a(alt_irq_entry.o)
                0x01104020                alt_irq_entry
 .exceptions.entry.label
                0x01104020        0x0 ../SynthesizerUnitTestV3_bsp/\libucosii_bsp.a(alt_exception_entry.o)
                0x01104020                alt_exception
 *(.exceptions.entry.user)
 *(.exceptions.entry)
 .exceptions.entry
                0x01104020       0x54 ../SynthesizerUnitTestV3_bsp/\libucosii_bsp.a(alt_exception_entry.o)
 *(.exceptions.irqtest.user)
 *(.exceptions.irqtest)
 .exceptions.irqtest
                0x01104074       0x10 ../SynthesizerUnitTestV3_bsp/\libucosii_bsp.a(alt_irq_entry.o)
 *(.exceptions.irqhandler.user)
 *(.exceptions.irqhandler)
 .exceptions.irqhandler
                0x01104084        0x4 ../SynthesizerUnitTestV3_bsp/\libucosii_bsp.a(alt_irq_entry.o)
 *(.exceptions.irqreturn.user)
 *(.exceptions.irqreturn)
 .exceptions.irqreturn
                0x01104088        0x4 ../SynthesizerUnitTestV3_bsp/\libucosii_bsp.a(alt_irq_entry.o)
 *(.exceptions.notirq.label)
 .exceptions.notirq.label
                0x0110408c        0x0 ../SynthesizerUnitTestV3_bsp/\libucosii_bsp.a(alt_irq_entry.o)
 *(.exceptions.notirq.user)
 *(.exceptions.notirq)
 .exceptions.notirq
                0x0110408c        0x8 ../SynthesizerUnitTestV3_bsp/\libucosii_bsp.a(alt_exception_entry.o)
 *(.exceptions.soft.user)
 *(.exceptions.soft)
 *(.exceptions.unknown.user)
 *(.exceptions.unknown)
 .exceptions.unknown
                0x01104094        0x4 ../SynthesizerUnitTestV3_bsp/\libucosii_bsp.a(alt_exception_entry.o)
 *(.exceptions.exit.label)
 .exceptions.exit.label
                0x01104098        0x0 ../SynthesizerUnitTestV3_bsp/\libucosii_bsp.a(alt_irq_entry.o)
 .exceptions.exit.label
                0x01104098        0x0 ../SynthesizerUnitTestV3_bsp/\libucosii_bsp.a(alt_exception_entry.o)
 *(.exceptions.exit.user)
 *(.exceptions.exit)
 .exceptions.exit
                0x01104098       0x54 ../SynthesizerUnitTestV3_bsp/\libucosii_bsp.a(alt_exception_entry.o)
 *(.exceptions)
 .exceptions    0x011040ec       0xd4 ../SynthesizerUnitTestV3_bsp/\libucosii_bsp.a(alt_irq_handler.o)
                0x011040ec                alt_irq_handler
                0x011041c0                PROVIDE (__ram_exceptions_end, ABSOLUTE (.))
                0x00800000                PROVIDE (__flash_exceptions_start, LOADADDR (.exceptions))

.text           0x008001a0     0xff2c
                0x008001a0                PROVIDE (stext, ABSOLUTE (.))
 *(.interp)
 *(.hash)
 *(.dynsym)
 *(.dynstr)
 *(.gnu.version)
 *(.gnu.version_d)
 *(.gnu.version_r)
 *(.rel.init)
 *(.rela.init)
 *(.rel.text .rel.text.* .rel.gnu.linkonce.t.*)
 *(.rela.text .rela.text.* .rela.gnu.linkonce.t.*)
 *(.rel.fini)
 *(.rela.fini)
 *(.rel.rodata .rel.rodata.* .rel.gnu.linkonce.r.*)
 *(.rela.rodata .rela.rodata.* .rela.gnu.linkonce.r.*)
 *(.rel.data .rel.data.* .rel.gnu.linkonce.d.*)
 *(.rela.data .rela.data.* .rela.gnu.linkonce.d.*)
 *(.rel.tdata .rel.tdata.* .rel.gnu.linkonce.td.*)
 *(.rela.tdata .rela.tdata.* .rela.gnu.linkonce.td.*)
 *(.rel.tbss .rel.tbss.* .rel.gnu.linkonce.tb.*)
 *(.rela.tbss .rela.tbss.* .rela.gnu.linkonce.tb.*)
 *(.rel.ctors)
 *(.rela.ctors)
 *(.rel.dtors)
 *(.rela.dtors)
 *(.rel.got)
 *(.rela.got)
 *(.rel.sdata .rel.sdata.* .rel.gnu.linkonce.s.*)
 *(.rela.sdata .rela.sdata.* .rela.gnu.linkonce.s.*)
 *(.rel.sbss .rel.sbss.* .rel.gnu.linkonce.sb.*)
 *(.rela.sbss .rela.sbss.* .rela.gnu.linkonce.sb.*)
 *(.rel.sdata2 .rel.sdata2.* .rel.gnu.linkonce.s2.*)
 *(.rela.sdata2 .rela.sdata2.* .rela.gnu.linkonce.s2.*)
 *(.rel.sbss2 .rel.sbss2.* .rel.gnu.linkonce.sb2.*)
 *(.rela.sbss2 .rela.sbss2.* .rela.gnu.linkonce.sb2.*)
 *(.rel.bss .rel.bss.* .rel.gnu.linkonce.b.*)
 *(.rela.bss .rela.bss.* .rela.gnu.linkonce.b.*)
 *(.rel.plt)
 *(.rela.plt)
 *(.rel.dyn)
 *(.init)
 *(.plt)
 *(.text .stub .text.* .gnu.linkonce.t.*)
 .text          0x008001a0       0x4c ../SynthesizerUnitTestV3_bsp//obj/HAL/src/crt0.o
                0x008001a0                _start
 .text          0x008001ec      0x308 obj/default/hello_ucosii.o
                0x008001ec                task1
                0x008003dc                task2
                0x00800448                main
 .text          0x008004f4       0xb4 c:/altera/12.1sp1/nios2eds/bin/gnu/h-i686-mingw32/bin/../lib/gcc/nios2-elf/4.1.2/../../../../nios2-elf/lib\libc.a(lib_a-puts.o)
                0x008004f4                _puts_r
                0x00800594                puts
 .text          0x008005a8       0x74 c:/altera/12.1sp1/nios2eds/bin/gnu/h-i686-mingw32/bin/../lib/gcc/nios2-elf/4.1.2/../../../../nios2-elf/lib\libc.a(lib_a-strlen.o)
                0x008005a8                strlen
 .text          0x0080061c      0x49c c:/altera/12.1sp1/nios2eds/bin/gnu/h-i686-mingw32/bin/../lib/gcc/nios2-elf/4.1.2/../../../../nios2-elf/lib\libc.a(lib_a-fvwrite.o)
                0x0080061c                __sfvwrite_r
 .text          0x00800ab8        0x0 c:/altera/12.1sp1/nios2eds/bin/gnu/h-i686-mingw32/bin/../lib/gcc/nios2-elf/4.1.2/../../../../nios2-elf/lib\libc.a(lib_a-impure.o)
 .text          0x00800ab8      0x740 c:/altera/12.1sp1/nios2eds/bin/gnu/h-i686-mingw32/bin/../lib/gcc/nios2-elf/4.1.2/../../../../nios2-elf/lib\libc.a(lib_a-mallocr.o)
                0x00800ab8                _malloc_r
 .text          0x008011f8       0xe4 c:/altera/12.1sp1/nios2eds/bin/gnu/h-i686-mingw32/bin/../lib/gcc/nios2-elf/4.1.2/../../../../nios2-elf/lib\libc.a(lib_a-memchr.o)
                0x008011f8                memchr
 .text          0x008012dc       0xa0 c:/altera/12.1sp1/nios2eds/bin/gnu/h-i686-mingw32/bin/../lib/gcc/nios2-elf/4.1.2/../../../../nios2-elf/lib\libc.a(lib_a-memcpy.o)
                0x008012dc                memcpy
 .text          0x0080137c       0xe0 c:/altera/12.1sp1/nios2eds/bin/gnu/h-i686-mingw32/bin/../lib/gcc/nios2-elf/4.1.2/../../../../nios2-elf/lib\libc.a(lib_a-memmove.o)
                0x0080137c                memmove
 .text          0x0080145c      0x5f4 c:/altera/12.1sp1/nios2eds/bin/gnu/h-i686-mingw32/bin/../lib/gcc/nios2-elf/4.1.2/../../../../nios2-elf/lib\libc.a(lib_a-reallocr.o)
                0x0080145c                _realloc_r
 .text          0x00801a50       0x70 c:/altera/12.1sp1/nios2eds/bin/gnu/h-i686-mingw32/bin/../lib/gcc/nios2-elf/4.1.2/../../../../nios2-elf/lib\libc.a(lib_a-sbrkr.o)
                0x00801a50                _sbrk_r
 .text          0x00801ac0      0x13c c:/altera/12.1sp1/nios2eds/bin/gnu/h-i686-mingw32/bin/../lib/gcc/nios2-elf/4.1.2/../../../../nios2-elf/lib\libc.a(lib_a-wsetup.o)
                0x00801ac0                __swsetup_r
 .text          0x00801bfc      0x230 c:/altera/12.1sp1/nios2eds/bin/gnu/h-i686-mingw32/bin/../lib/gcc/nios2-elf/4.1.2/../../../../nios2-elf/lib\libc.a(lib_a-fflush.o)
                0x00801bfc                _fflush_r
                0x00801df8                fflush
 .text          0x00801e2c      0x2c0 c:/altera/12.1sp1/nios2eds/bin/gnu/h-i686-mingw32/bin/../lib/gcc/nios2-elf/4.1.2/../../../../nios2-elf/lib\libc.a(lib_a-findfp.o)
                0x00801e84                __sfp_lock_acquire
                0x00801e88                __sfp_lock_release
                0x00801e8c                __sinit_lock_acquire
                0x00801e90                __sinit_lock_release
                0x00801e94                __sinit
                0x00801f48                __fp_unlock_all
                0x00801f60                __fp_lock_all
                0x00801f78                _cleanup_r
                0x00801f84                _cleanup
                0x00801f94                __sfmoreglue
                0x00801ffc                __sfp
 .text          0x008020ec      0x440 c:/altera/12.1sp1/nios2eds/bin/gnu/h-i686-mingw32/bin/../lib/gcc/nios2-elf/4.1.2/../../../../nios2-elf/lib\libc.a(lib_a-freer.o)
                0x008020ec                _malloc_trim_r
                0x00802218                _free_r
 .text          0x0080252c      0x180 c:/altera/12.1sp1/nios2eds/bin/gnu/h-i686-mingw32/bin/../lib/gcc/nios2-elf/4.1.2/../../../../nios2-elf/lib\libc.a(lib_a-fwalk.o)
                0x0080252c                _fwalk_reent
                0x008025f4                _fwalk
 .text          0x008026ac        0x0 c:/altera/12.1sp1/nios2eds/bin/gnu/h-i686-mingw32/bin/../lib/gcc/nios2-elf/4.1.2/../../../../nios2-elf/lib\libc.a(lib_a-int_errno.o)
 .text          0x008026ac      0x194 c:/altera/12.1sp1/nios2eds/bin/gnu/h-i686-mingw32/bin/../lib/gcc/nios2-elf/4.1.2/../../../../nios2-elf/lib\libc.a(lib_a-makebuf.o)
                0x008026ac                __smakebuf_r
 .text          0x00802840       0x98 c:/altera/12.1sp1/nios2eds/bin/gnu/h-i686-mingw32/bin/../lib/gcc/nios2-elf/4.1.2/../../../../nios2-elf/lib\libc.a(lib_a-memset.o)
                0x00802840                memset
 .text          0x008028d8      0x14c c:/altera/12.1sp1/nios2eds/bin/gnu/h-i686-mingw32/bin/../lib/gcc/nios2-elf/4.1.2/../../../../nios2-elf/lib\libc.a(lib_a-stdio.o)
                0x008028d8                __sclose
                0x008028e0                __sseek
                0x00802948                __swrite
                0x008029c4                __sread
 .text          0x00802a24       0x78 c:/altera/12.1sp1/nios2eds/bin/gnu/h-i686-mingw32/bin/../lib/gcc/nios2-elf/4.1.2/../../../../nios2-elf/lib\libc.a(lib_a-writer.o)
                0x00802a24                _write_r
 .text          0x00802a9c       0x70 c:/altera/12.1sp1/nios2eds/bin/gnu/h-i686-mingw32/bin/../lib/gcc/nios2-elf/4.1.2/../../../../nios2-elf/lib\libc.a(lib_a-closer.o)
                0x00802a9c                _close_r
 .text          0x00802b0c      0x124 c:/altera/12.1sp1/nios2eds/bin/gnu/h-i686-mingw32/bin/../lib/gcc/nios2-elf/4.1.2/../../../../nios2-elf/lib\libc.a(lib_a-fclose.o)
                0x00802b0c                _fclose_r
                0x00802c1c                fclose
 .text          0x00802c30       0x74 c:/altera/12.1sp1/nios2eds/bin/gnu/h-i686-mingw32/bin/../lib/gcc/nios2-elf/4.1.2/../../../../nios2-elf/lib\libc.a(lib_a-fstatr.o)
                0x00802c30                _fstat_r
 .text          0x00802ca4       0x70 c:/altera/12.1sp1/nios2eds/bin/gnu/h-i686-mingw32/bin/../lib/gcc/nios2-elf/4.1.2/../../../../nios2-elf/lib\libc.a(lib_a-isattyr.o)
                0x00802ca4                _isatty_r
 .text          0x00802d14       0x78 c:/altera/12.1sp1/nios2eds/bin/gnu/h-i686-mingw32/bin/../lib/gcc/nios2-elf/4.1.2/../../../../nios2-elf/lib\libc.a(lib_a-lseekr.o)
                0x00802d14                _lseek_r
 .text          0x00802d8c       0x78 c:/altera/12.1sp1/nios2eds/bin/gnu/h-i686-mingw32/bin/../lib/gcc/nios2-elf/4.1.2/../../../../nios2-elf/lib\libc.a(lib_a-readr.o)
                0x00802d8c                _read_r
 .text          0x00802e04      0x15c ../SynthesizerUnitTestV3_bsp/\libucosii_bsp.a(alt_close.o)
                0x00802e04                close
 .text          0x00802f60       0x2c ../SynthesizerUnitTestV3_bsp/\libucosii_bsp.a(alt_dev.o)
 .text          0x00802f8c        0x0 ../SynthesizerUnitTestV3_bsp/\libucosii_bsp.a(alt_errno.o)
 .text          0x00802f8c      0x134 ../SynthesizerUnitTestV3_bsp/\libucosii_bsp.a(alt_fstat.o)
                0x00802f8c                fstat
 .text          0x008030c0      0x120 ../SynthesizerUnitTestV3_bsp/\libucosii_bsp.a(alt_isatty.o)
                0x008030c0                isatty
 .text          0x008031e0       0xec ../SynthesizerUnitTestV3_bsp/\libucosii_bsp.a(alt_load.o)
                0x008031e0                alt_load
 .text          0x008032cc      0x150 ../SynthesizerUnitTestV3_bsp/\libucosii_bsp.a(alt_lseek.o)
                0x008032cc                lseek
 .text          0x0080341c       0xc8 ../SynthesizerUnitTestV3_bsp/\libucosii_bsp.a(alt_main.o)
                0x0080341c                alt_main
 .text          0x008034e4      0x180 ../SynthesizerUnitTestV3_bsp/\libucosii_bsp.a(alt_read.o)
                0x008034e4                read
 .text          0x00803664       0x60 ../SynthesizerUnitTestV3_bsp/\libucosii_bsp.a(alt_release_fd.o)
                0x00803664                alt_release_fd
 .text          0x008036c4       0xbc ../SynthesizerUnitTestV3_bsp/\libucosii_bsp.a(alt_sbrk.o)
                0x008036c4                sbrk
 .text          0x00803780      0x180 ../SynthesizerUnitTestV3_bsp/\libucosii_bsp.a(alt_write.o)
                0x00803780                write
 .text          0x00803900      0x108 ../SynthesizerUnitTestV3_bsp/\libucosii_bsp.a(alt_env_lock.o)
                0x00803900                __env_lock
                0x008039ac                __env_unlock
 .text          0x00803a08      0x1d8 ../SynthesizerUnitTestV3_bsp/\libucosii_bsp.a(alt_malloc_lock.o)
                0x00803a08                __malloc_lock
                0x00803b10                __malloc_unlock
 .text          0x00803be0     0x2128 ../SynthesizerUnitTestV3_bsp/\libucosii_bsp.a(os_core.o)
                0x00803be0                OSEventNameGet
                0x00803d10                OSEventNameSet
                0x00803e54                OSEventPendMulti
                0x00804508                OSInit
                0x0080455c                OSIntEnter
                0x008045d8                OSIntExit
                0x008046d8                OSSchedLock
                0x00804764                OSSchedUnlock
                0x00804848                OSStart
                0x008048b8                OSStatInit
                0x00804964                OSTimeTick
                0x00804ba4                OSVersion
                0x00804bc4                OS_Dummy
                0x00804be0                OS_EventTaskRdy
                0x00804d74                OS_EventTaskWait
                0x00804e84                OS_EventTaskWaitMulti
                0x00804fd8                OS_EventTaskRemove
                0x00805090                OS_EventTaskRemoveMulti
                0x00805194                OS_EventWaitListInit
                0x00805560                OS_MemClr
                0x008055b4                OS_MemCopy
                0x00805620                OS_Sched
                0x00805764                OS_StrCopy
                0x008057e4                OS_StrLen
                0x0080583c                OS_TaskIdle
                0x00805898                OS_TaskStat
                0x00805960                OS_TaskStatStkChk
                0x00805a28                OS_TCBInit
 .text          0x00805d08      0x18c ../SynthesizerUnitTestV3_bsp/\libucosii_bsp.a(os_dbg.o)
                0x00805d08                OSDebugInit
 .text          0x00805e94     0x193c ../SynthesizerUnitTestV3_bsp/\libucosii_bsp.a(os_flag.o)
                0x00805e94                OSFlagAccept
                0x008061c8                OSFlagCreate
                0x00806304                OSFlagDel
                0x008065ac                OSFlagNameGet
                0x008066f0                OSFlagNameSet
                0x00806844                OSFlagPend
                0x00806e88                OSFlagPendGetFlagsRdy
                0x00806ef0                OSFlagPost
                0x00807298                OSFlagQuery
                0x00807530                OS_FlagInit
                0x00807724                OS_FlagUnlink
 .text          0x008077d0      0x808 ../SynthesizerUnitTestV3_bsp/\libucosii_bsp.a(os_mem.o)
                0x008077d0                OSMemCreate
                0x008079ec                OSMemGet
                0x00807af0                OSMemNameGet
                0x00807bfc                OSMemNameSet
                0x00807d1c                OSMemPut
                0x00807e0c                OSMemQuery
                0x00807f08                OS_MemInit
 .text          0x00807fd8     0x1334 ../SynthesizerUnitTestV3_bsp/\libucosii_bsp.a(os_q.o)
                0x00807fd8                OSQAccept
                0x0080812c                OSQCreate
                0x00808340                OSQDel
                0x00808640                OSQFlush
                0x00808708                OSQPend
                0x00808a28                OSQPendAbort
                0x00808ba4                OSQPost
                0x00808d24                OSQPostFront
                0x00808eac                OSQPostOpt
                0x008090e0                OSQQuery
                0x00809260                OS_QInit
 .text          0x0080930c      0xbc8 ../SynthesizerUnitTestV3_bsp/\libucosii_bsp.a(os_sem.o)
                0x0080930c                OSSemAccept
                0x008093cc                OSSemCreate
                0x008094e0                OSSemDel
                0x00809780                OSSemPend
                0x008099fc                OSSemPendAbort
                0x00809b78                OSSemPost
                0x00809ca0                OSSemQuery
                0x00809dd0                OSSemSet
 .text          0x00809ed4     0x1a40 ../SynthesizerUnitTestV3_bsp/\libucosii_bsp.a(os_task.o)
                0x00809ed4                OSTaskChangePrio
                0x0080a448                OSTaskCreate
                0x0080a61c                OSTaskCreateExt
                0x0080a81c                OSTaskDel
                0x0080ac28                OSTaskDelReq
                0x0080ad98                OSTaskNameGet
                0x0080af50                OSTaskNameSet
                0x0080b114                OSTaskResume
                0x0080b32c                OSTaskStkChk
                0x0080b528                OSTaskSuspend
                0x0080b754                OSTaskQuery
                0x0080b898                OS_TaskStkClr
 .text          0x0080b914      0x598 ../SynthesizerUnitTestV3_bsp/\libucosii_bsp.a(os_time.o)
                0x0080b914                OSTimeDly
                0x0080ba60                OSTimeDlyHMSM
                0x0080bbd4                OSTimeDlyResume
                0x0080bde4                OSTimeGet
                0x0080be48                OSTimeSet
 .text          0x0080beac       0xf8 ../SynthesizerUnitTestV3_bsp/\libucosii_bsp.a(alt_sys_init.o)
                0x0080beac                alt_irq_init
                0x0080bee0                alt_sys_init
 .text          0x0080bfa4      0x560 ../SynthesizerUnitTestV3_bsp/\libucosii_bsp.a(altera_avalon_fifo_util.o)
                0x0080bfa4                altera_avalon_fifo_init
                0x0080c060                altera_avalon_fifo_read_status
                0x0080c09c                altera_avalon_fifo_read_ienable
                0x0080c0d8                altera_avalon_fifo_read_almostfull
                0x0080c104                altera_avalon_fifo_read_almostempty
                0x0080c130                altera_avalon_fifo_read_event
                0x0080c16c                altera_avalon_fifo_read_level
                0x0080c194                altera_avalon_fifo_clear_event
                0x0080c1fc                altera_avalon_fifo_write_ienable
                0x0080c25c                altera_avalon_fifo_write_almostfull
                0x0080c2bc                altera_avalon_fifo_write_almostempty
                0x0080c31c                altera_avalon_fifo_write_fifo
                0x0080c380                altera_avalon_read_fifo
                0x0080c3f0                altera_avalon_fifo_read_fifo
                0x0080c448                altera_avalon_fifo_write_other_info
                0x0080c4b0                altera_avalon_fifo_read_other_info
                0x0080c4dc                altera_avalon_fifo_read_backpressure
 .text          0x0080c504      0x148 ../SynthesizerUnitTestV3_bsp/\libucosii_bsp.a(altera_avalon_jtag_uart_fd.o)
                0x0080c504                altera_avalon_jtag_uart_read_fd
                0x0080c55c                altera_avalon_jtag_uart_write_fd
                0x0080c5b4                altera_avalon_jtag_uart_close_fd
                0x0080c5fc                altera_avalon_jtag_uart_ioctl_fd
 .text          0x0080c64c      0x580 ../SynthesizerUnitTestV3_bsp/\libucosii_bsp.a(altera_avalon_jtag_uart_init.o)
                0x0080c64c                altera_avalon_jtag_uart_init
                0x0080cb58                altera_avalon_jtag_uart_close
 .text          0x0080cbcc       0xf4 ../SynthesizerUnitTestV3_bsp/\libucosii_bsp.a(altera_avalon_jtag_uart_ioctl.o)
                0x0080cbcc                altera_avalon_jtag_uart_ioctl
 .text          0x0080ccc0      0x2c0 ../SynthesizerUnitTestV3_bsp/\libucosii_bsp.a(altera_avalon_jtag_uart_read.o)
                0x0080ccc0                altera_avalon_jtag_uart_read
 .text          0x0080cf80      0x2dc ../SynthesizerUnitTestV3_bsp/\libucosii_bsp.a(altera_avalon_jtag_uart_write.o)
                0x0080cf80                altera_avalon_jtag_uart_write
 .text          0x0080d25c       0xfc ../SynthesizerUnitTestV3_bsp/\libucosii_bsp.a(altera_avalon_timer_sc.o)
                0x0080d2d0                alt_avalon_timer_sc_init
 .text          0x0080d358      0x80c ../SynthesizerUnitTestV3_bsp/\libucosii_bsp.a(altera_up_avalon_audio.o)
                0x0080d358                alt_up_audio_open_dev
                0x0080d398                alt_up_audio_enable_read_interrupt
                0x0080d3e4                alt_up_audio_disable_read_interrupt
                0x0080d434                alt_up_audio_enable_write_interrupt
                0x0080d480                alt_up_audio_disable_write_interrupt
                0x0080d4d0                alt_up_audio_read_interrupt_pending
                0x0080d50c                alt_up_audio_write_interrupt_pending
                0x0080d548                alt_up_audio_reset_audio_core
                0x0080d5d0                alt_up_audio_read_fifo_avail
                0x0080d640                alt_up_audio_record_r
                0x0080d6b0                alt_up_audio_record_l
                0x0080d720                alt_up_audio_write_fifo_space
                0x0080d794                alt_up_audio_play_r
                0x0080d804                alt_up_audio_play_l
                0x0080d874                alt_up_audio_read_fifo
                0x0080d978                alt_up_audio_write_fifo
                0x0080daa4                alt_up_audio_read_fifo_head
                0x0080db04                alt_up_audio_write_fifo_head
 .text          0x0080db64      0x788 ../SynthesizerUnitTestV3_bsp/\libucosii_bsp.a(altera_up_avalon_audio_and_video_config.o)
                0x0080db64                alt_up_av_config_open_dev
                0x0080dbc8                alt_up_av_config_write_data
                0x0080dc2c                alt_up_av_config_read_data
                0x0080dcb8                alt_up_av_config_reset
                0x0080dcf0                alt_up_av_config_enable_interrupt
                0x0080dd28                alt_up_av_config_disable_interrupt
                0x0080dd58                alt_up_av_config_read_acknowledge
                0x0080ddc0                alt_up_av_config_read_ready
                0x0080ddf8                alt_up_av_config_write_audio_cfg_register
                0x0080dea4                alt_up_av_config_read_video_cfg_register
                0x0080df9c                alt_up_av_config_write_video_cfg_register
                0x0080e094                alt_up_av_config_read_DC2_cfg_register
                0x0080e0f8                alt_up_av_config_write_DC2_cfg_register
                0x0080e15c                alt_up_av_config_read_D5M_cfg_register
                0x0080e1c0                alt_up_av_config_write_D5M_cfg_register
                0x0080e224                alt_up_av_config_read_LTM_cfg_register
                0x0080e288                alt_up_av_config_write_LTM_cfg_register
 .text          0x0080e2ec      0x530 ../SynthesizerUnitTestV3_bsp/\libucosii_bsp.a(altera_up_avalon_character_lcd.o)
                0x0080e2ec                get_DDRAM_addr
                0x0080e368                alt_up_character_lcd_send_cmd
                0x0080e39c                alt_up_character_lcd_init
                0x0080e3d0                alt_up_character_lcd_open_dev
                0x0080e410                alt_up_character_lcd_write
                0x0080e488                alt_up_character_lcd_string
                0x0080e500                alt_up_character_lcd_write_fd
                0x0080e54c                alt_up_character_lcd_set_cursor_pos
                0x0080e5c4                alt_up_character_lcd_shift_cursor
                0x0080e674                alt_up_character_lcd_shift_display
                0x0080e724                alt_up_character_lcd_erase_pos
                0x0080e7b4                alt_up_character_lcd_cursor_off
                0x0080e7e8                alt_up_character_lcd_cursor_blink_on
 .text          0x0080e81c      0x154 ../SynthesizerUnitTestV3_bsp/\libucosii_bsp.a(alt_alarm_start.o)
                0x0080e81c                alt_alarm_start
 .text          0x0080e970       0x44 ../SynthesizerUnitTestV3_bsp/\libucosii_bsp.a(alt_dcache_flush_all.o)
                0x0080e970                alt_dcache_flush_all
 .text          0x0080e9b4      0x114 ../SynthesizerUnitTestV3_bsp/\libucosii_bsp.a(alt_dev_llist_insert.o)
                0x0080e9b4                alt_dev_llist_insert
 .text          0x0080eac8       0x64 ../SynthesizerUnitTestV3_bsp/\libucosii_bsp.a(alt_do_ctors.o)
                0x0080eac8                _do_ctors
 .text          0x0080eb2c       0x64 ../SynthesizerUnitTestV3_bsp/\libucosii_bsp.a(alt_do_dtors.o)
                0x0080eb2c                _do_dtors
 .text          0x0080eb90       0x94 ../SynthesizerUnitTestV3_bsp/\libucosii_bsp.a(alt_find_dev.o)
                0x0080eb90                alt_find_dev
 .text          0x0080ec24       0x30 ../SynthesizerUnitTestV3_bsp/\libucosii_bsp.a(alt_icache_flush_all.o)
                0x0080ec24                alt_icache_flush_all
 .text          0x0080ec54      0x13c ../SynthesizerUnitTestV3_bsp/\libucosii_bsp.a(alt_io_redirect.o)
                0x0080ed18                alt_io_redirect
 .text          0x0080ed90      0x1c0 ../SynthesizerUnitTestV3_bsp/\libucosii_bsp.a(alt_irq_register.o)
                0x0080ed90                alt_irq_register
 .text          0x0080ef50        0x0 ../SynthesizerUnitTestV3_bsp/\libucosii_bsp.a(alt_irq_vars.o)
 .text          0x0080ef50      0x2c4 ../SynthesizerUnitTestV3_bsp/\libucosii_bsp.a(alt_open.o)
                0x0080f02c                open
 .text          0x0080f214      0x1a8 ../SynthesizerUnitTestV3_bsp/\libucosii_bsp.a(alt_tick.o)
                0x0080f214                alt_alarm_stop
                0x0080f2ac                alt_tick
 .text          0x0080f3bc       0x20 ../SynthesizerUnitTestV3_bsp/\libucosii_bsp.a(altera_nios2_qsys_irq.o)
                0x0080f3bc                altera_nios2_qsys_irq_init
 .text          0x0080f3dc       0xd0 ../SynthesizerUnitTestV3_bsp/\libucosii_bsp.a(os_cpu_a.o)
                0x0080f3dc                OSCtxSw
                0x0080f3dc                OSIntCtxSw
                0x0080f468                OSStartHighRdy
                0x0080f488                OSStartTsk
 .text          0x0080f4ac      0x418 ../SynthesizerUnitTestV3_bsp/\libucosii_bsp.a(os_cpu_c.o)
                0x0080f4ac                OSTaskStkInit
                0x0080f7bc                OSTaskCreateHook
                0x0080f7dc                OSTaskDelHook
                0x0080f7fc                OSTaskSwHook
                0x0080f818                OSTaskStatHook
                0x0080f834                OSTimeTickHook
                0x0080f850                OSInitHookBegin
                0x0080f86c                OSInitHookEnd
                0x0080f888                OSTaskIdleHook
                0x0080f8a4                OSTCBInitHook
 .text          0x0080f8c4      0x120 ../SynthesizerUnitTestV3_bsp/\libucosii_bsp.a(alt_find_file.o)
                0x0080f8c4                alt_find_file
 .text          0x0080f9e4       0xf4 ../SynthesizerUnitTestV3_bsp/\libucosii_bsp.a(alt_get_fd.o)
                0x0080f9e4                alt_get_fd
 .text          0x0080fad8       0x90 ../SynthesizerUnitTestV3_bsp/\libucosii_bsp.a(alt_icache_flush.o)
                0x0080fad8                alt_icache_flush
 .text          0x0080fb68        0x0 ../SynthesizerUnitTestV3_bsp/\libucosii_bsp.a(alt_irq_entry.o)
 .text          0x0080fb68        0x0 ../SynthesizerUnitTestV3_bsp/\libucosii_bsp.a(alt_irq_handler.o)
 .text          0x0080fb68        0x0 ../SynthesizerUnitTestV3_bsp/\libucosii_bsp.a(alt_exception_entry.o)
 .text          0x0080fb68       0x14 c:/altera/12.1sp1/nios2eds/bin/gnu/h-i686-mingw32/bin/../lib/gcc/nios2-elf/4.1.2/../../../../nios2-elf/lib\libc.a(lib_a-atexit.o)
                0x0080fb68                atexit
 .text          0x0080fb7c       0x38 c:/altera/12.1sp1/nios2eds/bin/gnu/h-i686-mingw32/bin/../lib/gcc/nios2-elf/4.1.2/../../../../nios2-elf/lib\libc.a(lib_a-exit.o)
                0x0080fb7c                exit
 .text          0x0080fbb4       0x74 c:/altera/12.1sp1/nios2eds/bin/gnu/h-i686-mingw32/bin/../lib/gcc/nios2-elf/4.1.2/../../../../nios2-elf/lib\libc.a(lib_a-memcmp.o)
                0x0080fbb4                memcmp
 .text          0x0080fc28      0x134 c:/altera/12.1sp1/nios2eds/bin/gnu/h-i686-mingw32/bin/../lib/gcc/nios2-elf/4.1.2/../../../../nios2-elf/lib\libc.a(lib_a-__atexit.o)
                0x0080fc28                __register_exitproc
 .text          0x0080fd5c      0x1b4 c:/altera/12.1sp1/nios2eds/bin/gnu/h-i686-mingw32/bin/../lib/gcc/nios2-elf/4.1.2/../../../../nios2-elf/lib\libc.a(lib_a-__call_atexit.o)
                0x0080fd60                __call_exitprocs
 .text          0x0080ff10      0x14c c:/altera/12.1sp1/nios2eds/bin/gnu/h-i686-mingw32/bin/../lib/gcc/nios2-elf/4.1.2\libgcc.a(lib2-divmod.o)
                0x0080ff8c                __divsi3
                0x0080ffec                __modsi3
                0x0081004c                __udivsi3
                0x00810054                __umodsi3
 .text          0x0081005c       0x6c ../SynthesizerUnitTestV3_bsp/\libucosii_bsp.a(alt_exit.o)
                0x0081009c                _exit
 *(.gnu.warning.*)
 *(.fini)
                0x008100c8                PROVIDE (__etext, ABSOLUTE (.))
                0x008100c8                PROVIDE (_etext, ABSOLUTE (.))
                0x008100c8                PROVIDE (etext, ABSOLUTE (.))
 *(.eh_frame_hdr)
                0x008100c8                . = ALIGN (0x4)
                0x008100c8                PROVIDE (__preinit_array_start, ABSOLUTE (.))
 *(.preinit_array)
                0x008100c8                PROVIDE (__preinit_array_end, ABSOLUTE (.))
                0x008100c8                PROVIDE (__init_array_start, ABSOLUTE (.))
 *(.init_array)
                0x008100c8                PROVIDE (__init_array_end, ABSOLUTE (.))
                0x008100c8                PROVIDE (__fini_array_start, ABSOLUTE (.))
 *(.fini_array)
                0x008100c8                PROVIDE (__fini_array_end, ABSOLUTE (.))
 *(.eh_frame)
 *(.gcc_except_table)
 *(.dynamic)
                0x008100c8                PROVIDE (__CTOR_LIST__, ABSOLUTE (.))
 *(.ctors)
 *(SORT(.ctors.*))
 .ctors.65535   0x008100c8        0x4 c:/altera/12.1sp1/nios2eds/bin/gnu/h-i686-mingw32/bin/../lib/gcc/nios2-elf/4.1.2/../../../../nios2-elf/lib\libc.a(lib_a-__call_atexit.o)
                0x008100cc                PROVIDE (__CTOR_END__, ABSOLUTE (.))
                0x008100cc                PROVIDE (__DTOR_LIST__, ABSOLUTE (.))
 *(.dtors)
 *(SORT(.dtors.*))
                0x008100cc                PROVIDE (__DTOR_END__, ABSOLUTE (.))
 *(.jcr)
                0x008100cc                . = ALIGN (0x4)

.rodata         0x008100cc      0x25c
                0x008100cc                PROVIDE (__ram_rodata_start, ABSOLUTE (.))
                0x008100cc                . = ALIGN (0x4)
 *(.rodata .rodata.* .gnu.linkonce.r.*)
 .rodata        0x008100cc       0xb4 obj/default/hello_ucosii.o
 .rodata.str1.4
                0x00810180        0x2 c:/altera/12.1sp1/nios2eds/bin/gnu/h-i686-mingw32/bin/../lib/gcc/nios2-elf/4.1.2/../../../../nios2-elf/lib\libc.a(lib_a-puts.o)
                                  0x4 (size before relaxing)
 *fill*         0x00810182        0x2 00
 .rodata.str1.4
                0x00810184        0x4 c:/altera/12.1sp1/nios2eds/bin/gnu/h-i686-mingw32/bin/../lib/gcc/nios2-elf/4.1.2/../../../../nios2-elf/lib\libc.a(lib_a-impure.o)
 .rodata        0x00810188        0xc ../SynthesizerUnitTestV3_bsp/\libucosii_bsp.a(alt_dev.o)
 .rodata        0x00810194       0x14 ../SynthesizerUnitTestV3_bsp/\libucosii_bsp.a(alt_main.o)
 .rodata        0x008101a8      0x120 ../SynthesizerUnitTestV3_bsp/\libucosii_bsp.a(os_core.o)
                0x008101a8                OSUnMapTbl
 .rodata        0x008102c8       0x5c ../SynthesizerUnitTestV3_bsp/\libucosii_bsp.a(alt_sys_init.o)
 .rodata        0x00810324        0x4 ../SynthesizerUnitTestV3_bsp/\libucosii_bsp.a(os_cpu_c.o)
 *(.rodata1)
                0x00810328                . = ALIGN (0x4)
                0x00810328                PROVIDE (__ram_rodata_end, ABSOLUTE (.))
                0x008100cc                PROVIDE (__flash_rodata_start, LOADADDR (.rodata))

.rwdata         0x00810328     0x1b5c load address 0x00811e84
                0x00810328                PROVIDE (__ram_rwdata_start, ABSOLUTE (.))
                0x00810328                . = ALIGN (0x4)
 *(.got.plt)
 *(.got)
 *(.data1)
 *(.data .data.* .gnu.linkonce.d.*)
 .data          0x00810328        0x0 ../SynthesizerUnitTestV3_bsp//obj/HAL/src/crt0.o
 .data          0x00810328        0x0 obj/default/hello_ucosii.o
 .data          0x00810328        0x0 c:/altera/12.1sp1/nios2eds/bin/gnu/h-i686-mingw32/bin/../lib/gcc/nios2-elf/4.1.2/../../../../nios2-elf/lib\libc.a(lib_a-puts.o)
 .data          0x00810328        0x0 c:/altera/12.1sp1/nios2eds/bin/gnu/h-i686-mingw32/bin/../lib/gcc/nios2-elf/4.1.2/../../../../nios2-elf/lib\libc.a(lib_a-strlen.o)
 .data          0x00810328        0x0 c:/altera/12.1sp1/nios2eds/bin/gnu/h-i686-mingw32/bin/../lib/gcc/nios2-elf/4.1.2/../../../../nios2-elf/lib\libc.a(lib_a-fvwrite.o)
 .data          0x00810328      0x400 c:/altera/12.1sp1/nios2eds/bin/gnu/h-i686-mingw32/bin/../lib/gcc/nios2-elf/4.1.2/../../../../nios2-elf/lib\libc.a(lib_a-impure.o)
 .data          0x00810728      0x408 c:/altera/12.1sp1/nios2eds/bin/gnu/h-i686-mingw32/bin/../lib/gcc/nios2-elf/4.1.2/../../../../nios2-elf/lib\libc.a(lib_a-mallocr.o)
                0x00810728                __malloc_av_
 .data          0x00810b30        0x0 c:/altera/12.1sp1/nios2eds/bin/gnu/h-i686-mingw32/bin/../lib/gcc/nios2-elf/4.1.2/../../../../nios2-elf/lib\libc.a(lib_a-memchr.o)
 .data          0x00810b30        0x0 c:/altera/12.1sp1/nios2eds/bin/gnu/h-i686-mingw32/bin/../lib/gcc/nios2-elf/4.1.2/../../../../nios2-elf/lib\libc.a(lib_a-memcpy.o)
 .data          0x00810b30        0x0 c:/altera/12.1sp1/nios2eds/bin/gnu/h-i686-mingw32/bin/../lib/gcc/nios2-elf/4.1.2/../../../../nios2-elf/lib\libc.a(lib_a-memmove.o)
 .data          0x00810b30        0x0 c:/altera/12.1sp1/nios2eds/bin/gnu/h-i686-mingw32/bin/../lib/gcc/nios2-elf/4.1.2/../../../../nios2-elf/lib\libc.a(lib_a-reallocr.o)
 .data          0x00810b30        0x0 c:/altera/12.1sp1/nios2eds/bin/gnu/h-i686-mingw32/bin/../lib/gcc/nios2-elf/4.1.2/../../../../nios2-elf/lib\libc.a(lib_a-sbrkr.o)
 .data          0x00810b30        0x0 c:/altera/12.1sp1/nios2eds/bin/gnu/h-i686-mingw32/bin/../lib/gcc/nios2-elf/4.1.2/../../../../nios2-elf/lib\libc.a(lib_a-wsetup.o)
 .data          0x00810b30        0x0 c:/altera/12.1sp1/nios2eds/bin/gnu/h-i686-mingw32/bin/../lib/gcc/nios2-elf/4.1.2/../../../../nios2-elf/lib\libc.a(lib_a-fflush.o)
 .data          0x00810b30        0x0 c:/altera/12.1sp1/nios2eds/bin/gnu/h-i686-mingw32/bin/../lib/gcc/nios2-elf/4.1.2/../../../../nios2-elf/lib\libc.a(lib_a-findfp.o)
 .data          0x00810b30        0x0 c:/altera/12.1sp1/nios2eds/bin/gnu/h-i686-mingw32/bin/../lib/gcc/nios2-elf/4.1.2/../../../../nios2-elf/lib\libc.a(lib_a-freer.o)
 .data          0x00810b30        0x0 c:/altera/12.1sp1/nios2eds/bin/gnu/h-i686-mingw32/bin/../lib/gcc/nios2-elf/4.1.2/../../../../nios2-elf/lib\libc.a(lib_a-fwalk.o)
 .data          0x00810b30        0x0 c:/altera/12.1sp1/nios2eds/bin/gnu/h-i686-mingw32/bin/../lib/gcc/nios2-elf/4.1.2/../../../../nios2-elf/lib\libc.a(lib_a-int_errno.o)
 .data          0x00810b30        0x0 c:/altera/12.1sp1/nios2eds/bin/gnu/h-i686-mingw32/bin/../lib/gcc/nios2-elf/4.1.2/../../../../nios2-elf/lib\libc.a(lib_a-makebuf.o)
 .data          0x00810b30        0x0 c:/altera/12.1sp1/nios2eds/bin/gnu/h-i686-mingw32/bin/../lib/gcc/nios2-elf/4.1.2/../../../../nios2-elf/lib\libc.a(lib_a-memset.o)
 .data          0x00810b30        0x0 c:/altera/12.1sp1/nios2eds/bin/gnu/h-i686-mingw32/bin/../lib/gcc/nios2-elf/4.1.2/../../../../nios2-elf/lib\libc.a(lib_a-stdio.o)
 .data          0x00810b30        0x0 c:/altera/12.1sp1/nios2eds/bin/gnu/h-i686-mingw32/bin/../lib/gcc/nios2-elf/4.1.2/../../../../nios2-elf/lib\libc.a(lib_a-writer.o)
 .data          0x00810b30        0x0 c:/altera/12.1sp1/nios2eds/bin/gnu/h-i686-mingw32/bin/../lib/gcc/nios2-elf/4.1.2/../../../../nios2-elf/lib\libc.a(lib_a-closer.o)
 .data          0x00810b30        0x0 c:/altera/12.1sp1/nios2eds/bin/gnu/h-i686-mingw32/bin/../lib/gcc/nios2-elf/4.1.2/../../../../nios2-elf/lib\libc.a(lib_a-fclose.o)
 .data          0x00810b30        0x0 c:/altera/12.1sp1/nios2eds/bin/gnu/h-i686-mingw32/bin/../lib/gcc/nios2-elf/4.1.2/../../../../nios2-elf/lib\libc.a(lib_a-fstatr.o)
 .data          0x00810b30        0x0 c:/altera/12.1sp1/nios2eds/bin/gnu/h-i686-mingw32/bin/../lib/gcc/nios2-elf/4.1.2/../../../../nios2-elf/lib\libc.a(lib_a-isattyr.o)
 .data          0x00810b30        0x0 c:/altera/12.1sp1/nios2eds/bin/gnu/h-i686-mingw32/bin/../lib/gcc/nios2-elf/4.1.2/../../../../nios2-elf/lib\libc.a(lib_a-lseekr.o)
 .data          0x00810b30        0x0 c:/altera/12.1sp1/nios2eds/bin/gnu/h-i686-mingw32/bin/../lib/gcc/nios2-elf/4.1.2/../../../../nios2-elf/lib\libc.a(lib_a-readr.o)
 .data          0x00810b30        0x0 ../SynthesizerUnitTestV3_bsp/\libucosii_bsp.a(alt_close.o)
 .data          0x00810b30      0x1a8 ../SynthesizerUnitTestV3_bsp/\libucosii_bsp.a(alt_dev.o)
                0x00810b30                alt_dev_null
                0x00810b58                alt_fd_list
 .data          0x00810cd8        0x0 ../SynthesizerUnitTestV3_bsp/\libucosii_bsp.a(alt_errno.o)
 .data          0x00810cd8        0x0 ../SynthesizerUnitTestV3_bsp/\libucosii_bsp.a(alt_fstat.o)
 .data          0x00810cd8        0x0 ../SynthesizerUnitTestV3_bsp/\libucosii_bsp.a(alt_isatty.o)
 .data          0x00810cd8        0x0 ../SynthesizerUnitTestV3_bsp/\libucosii_bsp.a(alt_load.o)
 .data          0x00810cd8        0x0 ../SynthesizerUnitTestV3_bsp/\libucosii_bsp.a(alt_lseek.o)
 .data          0x00810cd8        0x0 ../SynthesizerUnitTestV3_bsp/\libucosii_bsp.a(alt_main.o)
 .data          0x00810cd8        0x0 ../SynthesizerUnitTestV3_bsp/\libucosii_bsp.a(alt_read.o)
 .data          0x00810cd8        0x0 ../SynthesizerUnitTestV3_bsp/\libucosii_bsp.a(alt_release_fd.o)
 .data          0x00810cd8        0x0 ../SynthesizerUnitTestV3_bsp/\libucosii_bsp.a(alt_sbrk.o)
 .data          0x00810cd8        0x0 ../SynthesizerUnitTestV3_bsp/\libucosii_bsp.a(alt_write.o)
 .data          0x00810cd8        0x0 ../SynthesizerUnitTestV3_bsp/\libucosii_bsp.a(alt_env_lock.o)
 .data          0x00810cd8        0x0 ../SynthesizerUnitTestV3_bsp/\libucosii_bsp.a(alt_malloc_lock.o)
 .data          0x00810cd8        0x0 ../SynthesizerUnitTestV3_bsp/\libucosii_bsp.a(os_core.o)
 .data          0x00810cd8        0x0 ../SynthesizerUnitTestV3_bsp/\libucosii_bsp.a(os_dbg.o)
 .data          0x00810cd8        0x0 ../SynthesizerUnitTestV3_bsp/\libucosii_bsp.a(os_flag.o)
 .data          0x00810cd8        0x0 ../SynthesizerUnitTestV3_bsp/\libucosii_bsp.a(os_mem.o)
 .data          0x00810cd8        0x0 ../SynthesizerUnitTestV3_bsp/\libucosii_bsp.a(os_q.o)
 .data          0x00810cd8        0x0 ../SynthesizerUnitTestV3_bsp/\libucosii_bsp.a(os_sem.o)
 .data          0x00810cd8        0x0 ../SynthesizerUnitTestV3_bsp/\libucosii_bsp.a(os_task.o)
 .data          0x00810cd8        0x0 ../SynthesizerUnitTestV3_bsp/\libucosii_bsp.a(os_time.o)
 .data          0x00810cd8     0x10f8 ../SynthesizerUnitTestV3_bsp/\libucosii_bsp.a(alt_sys_init.o)
 .data          0x00811dd0        0x0 ../SynthesizerUnitTestV3_bsp/\libucosii_bsp.a(altera_avalon_fifo_util.o)
 .data          0x00811dd0        0x0 ../SynthesizerUnitTestV3_bsp/\libucosii_bsp.a(altera_avalon_jtag_uart_fd.o)
 .data          0x00811dd0        0x0 ../SynthesizerUnitTestV3_bsp/\libucosii_bsp.a(altera_avalon_jtag_uart_init.o)
 .data          0x00811dd0        0x0 ../SynthesizerUnitTestV3_bsp/\libucosii_bsp.a(altera_avalon_jtag_uart_ioctl.o)
 .data          0x00811dd0        0x0 ../SynthesizerUnitTestV3_bsp/\libucosii_bsp.a(altera_avalon_jtag_uart_read.o)
 .data          0x00811dd0        0x0 ../SynthesizerUnitTestV3_bsp/\libucosii_bsp.a(altera_avalon_jtag_uart_write.o)
 .data          0x00811dd0        0x0 ../SynthesizerUnitTestV3_bsp/\libucosii_bsp.a(altera_avalon_timer_sc.o)
 .data          0x00811dd0        0x0 ../SynthesizerUnitTestV3_bsp/\libucosii_bsp.a(altera_up_avalon_audio.o)
 .data          0x00811dd0        0x0 ../SynthesizerUnitTestV3_bsp/\libucosii_bsp.a(altera_up_avalon_audio_and_video_config.o)
 .data          0x00811dd0        0x0 ../SynthesizerUnitTestV3_bsp/\libucosii_bsp.a(altera_up_avalon_character_lcd.o)
 .data          0x00811dd0        0x0 ../SynthesizerUnitTestV3_bsp/\libucosii_bsp.a(alt_alarm_start.o)
 .data          0x00811dd0        0x0 ../SynthesizerUnitTestV3_bsp/\libucosii_bsp.a(alt_dcache_flush_all.o)
 .data          0x00811dd0        0x0 ../SynthesizerUnitTestV3_bsp/\libucosii_bsp.a(alt_dev_llist_insert.o)
 .data          0x00811dd0        0x0 ../SynthesizerUnitTestV3_bsp/\libucosii_bsp.a(alt_do_ctors.o)
 .data          0x00811dd0        0x0 ../SynthesizerUnitTestV3_bsp/\libucosii_bsp.a(alt_do_dtors.o)
 .data          0x00811dd0        0x0 ../SynthesizerUnitTestV3_bsp/\libucosii_bsp.a(alt_find_dev.o)
 .data          0x00811dd0        0x0 ../SynthesizerUnitTestV3_bsp/\libucosii_bsp.a(alt_icache_flush_all.o)
 .data          0x00811dd0        0x0 ../SynthesizerUnitTestV3_bsp/\libucosii_bsp.a(alt_io_redirect.o)
 .data          0x00811dd0        0x0 ../SynthesizerUnitTestV3_bsp/\libucosii_bsp.a(alt_irq_register.o)
 .data          0x00811dd0        0x0 ../SynthesizerUnitTestV3_bsp/\libucosii_bsp.a(alt_irq_vars.o)
 .data          0x00811dd0        0x0 ../SynthesizerUnitTestV3_bsp/\libucosii_bsp.a(alt_open.o)
 .data          0x00811dd0        0x0 ../SynthesizerUnitTestV3_bsp/\libucosii_bsp.a(alt_tick.o)
 .data          0x00811dd0        0x0 ../SynthesizerUnitTestV3_bsp/\libucosii_bsp.a(altera_nios2_qsys_irq.o)
 .data          0x00811dd0        0x0 ../SynthesizerUnitTestV3_bsp/\libucosii_bsp.a(os_cpu_a.o)
 .data          0x00811dd0        0x0 ../SynthesizerUnitTestV3_bsp/\libucosii_bsp.a(os_cpu_c.o)
 .data          0x00811dd0        0x0 ../SynthesizerUnitTestV3_bsp/\libucosii_bsp.a(alt_find_file.o)
 .data          0x00811dd0        0x0 ../SynthesizerUnitTestV3_bsp/\libucosii_bsp.a(alt_get_fd.o)
 .data          0x00811dd0        0x0 ../SynthesizerUnitTestV3_bsp/\libucosii_bsp.a(alt_icache_flush.o)
 .data          0x00811dd0        0x0 ../SynthesizerUnitTestV3_bsp/\libucosii_bsp.a(alt_irq_entry.o)
 .data          0x00811dd0        0x0 ../SynthesizerUnitTestV3_bsp/\libucosii_bsp.a(alt_irq_handler.o)
 .data          0x00811dd0        0x0 ../SynthesizerUnitTestV3_bsp/\libucosii_bsp.a(alt_exception_entry.o)
 .data          0x00811dd0        0x0 c:/altera/12.1sp1/nios2eds/bin/gnu/h-i686-mingw32/bin/../lib/gcc/nios2-elf/4.1.2/../../../../nios2-elf/lib\libc.a(lib_a-atexit.o)
 .data          0x00811dd0        0x0 c:/altera/12.1sp1/nios2eds/bin/gnu/h-i686-mingw32/bin/../lib/gcc/nios2-elf/4.1.2/../../../../nios2-elf/lib\libc.a(lib_a-exit.o)
 .data          0x00811dd0        0x0 c:/altera/12.1sp1/nios2eds/bin/gnu/h-i686-mingw32/bin/../lib/gcc/nios2-elf/4.1.2/../../../../nios2-elf/lib\libc.a(lib_a-memcmp.o)
 .data          0x00811dd0        0x0 c:/altera/12.1sp1/nios2eds/bin/gnu/h-i686-mingw32/bin/../lib/gcc/nios2-elf/4.1.2/../../../../nios2-elf/lib\libc.a(lib_a-__atexit.o)
 .data          0x00811dd0        0x0 c:/altera/12.1sp1/nios2eds/bin/gnu/h-i686-mingw32/bin/../lib/gcc/nios2-elf/4.1.2/../../../../nios2-elf/lib\libc.a(lib_a-__call_atexit.o)
 .data          0x00811dd0        0x0 c:/altera/12.1sp1/nios2eds/bin/gnu/h-i686-mingw32/bin/../lib/gcc/nios2-elf/4.1.2\libgcc.a(lib2-divmod.o)
 .data          0x00811dd0        0x0 ../SynthesizerUnitTestV3_bsp/\libucosii_bsp.a(alt_exit.o)
                0x00819dd0                _gp = ABSOLUTE ((. + 0x8000))
                0x00819dd0                PROVIDE (gp, _gp)
 *(.rwdata .rwdata.*)
 *(.sdata .sdata.* .gnu.linkonce.s.*)
 .sdata         0x00811dd0        0x8 c:/altera/12.1sp1/nios2eds/bin/gnu/h-i686-mingw32/bin/../lib/gcc/nios2-elf/4.1.2/../../../../nios2-elf/lib\libc.a(lib_a-impure.o)
                0x00811dd0                _impure_ptr
                0x00811dd4                _global_impure_ptr
 .sdata         0x00811dd8        0x8 c:/altera/12.1sp1/nios2eds/bin/gnu/h-i686-mingw32/bin/../lib/gcc/nios2-elf/4.1.2/../../../../nios2-elf/lib\libc.a(lib_a-mallocr.o)
                0x00811dd8                __malloc_trim_threshold
                0x00811ddc                __malloc_sbrk_base
 .sdata         0x00811de0       0x14 ../SynthesizerUnitTestV3_bsp/\libucosii_bsp.a(alt_dev.o)
                0x00811de0                alt_fs_list
                0x00811de8                alt_dev_list
                0x00811df0                alt_max_fd
 .sdata         0x00811df4        0x4 ../SynthesizerUnitTestV3_bsp/\libucosii_bsp.a(alt_errno.o)
                0x00811df4                alt_errno
 .sdata         0x00811df8        0x4 ../SynthesizerUnitTestV3_bsp/\libucosii_bsp.a(alt_sbrk.o)
 .sdata         0x00811dfc        0x4 ../SynthesizerUnitTestV3_bsp/\libucosii_bsp.a(alt_env_lock.o)
 .sdata         0x00811e00        0x4 ../SynthesizerUnitTestV3_bsp/\libucosii_bsp.a(alt_malloc_lock.o)
 .sdata         0x00811e04       0x74 ../SynthesizerUnitTestV3_bsp/\libucosii_bsp.a(os_dbg.o)
                0x00811e04                OSDebugEn
                0x00811e08                OSEndiannessTest
                0x00811e0c                OSEventEn
                0x00811e0e                OSEventMax
                0x00811e10                OSEventNameSize
                0x00811e12                OSEventSize
                0x00811e14                OSEventTblSize
                0x00811e16                OSEventMultiEn
                0x00811e18                OSFlagEn
                0x00811e1a                OSFlagGrpSize
                0x00811e1c                OSFlagNodeSize
                0x00811e1e                OSFlagWidth
                0x00811e20                OSFlagMax
                0x00811e22                OSFlagNameSize
                0x00811e24                OSLowestPrio
                0x00811e26                OSMboxEn
                0x00811e28                OSMemEn
                0x00811e2a                OSMemMax
                0x00811e2c                OSMemNameSize
                0x00811e2e                OSMemSize
                0x00811e30                OSMemTblSize
                0x00811e32                OSMutexEn
                0x00811e34                OSPtrSize
                0x00811e36                OSQEn
                0x00811e38                OSQMax
                0x00811e3a                OSQSize
                0x00811e3c                OSRdyTblSize
                0x00811e3e                OSSemEn
                0x00811e40                OSStkWidth
                0x00811e42                OSTaskCreateEn
                0x00811e44                OSTaskCreateExtEn
                0x00811e46                OSTaskDelEn
                0x00811e48                OSTaskIdleStkSize
                0x00811e4a                OSTaskProfileEn
                0x00811e4c                OSTaskMax
                0x00811e4e                OSTaskNameSize
                0x00811e50                OSTaskStatEn
                0x00811e52                OSTaskStatStkSize
                0x00811e54                OSTaskStatStkChkEn
                0x00811e56                OSTaskSwHookEn
                0x00811e58                OSTCBPrioTblMax
                0x00811e5a                OSTCBSize
                0x00811e5c                OSTicksPerSec
                0x00811e5e                OSTimeTickHookEn
                0x00811e60                OSVersionNbr
                0x00811e62                OSTmrEn
                0x00811e64                OSTmrCfgMax
                0x00811e66                OSTmrCfgNameSize
                0x00811e68                OSTmrCfgWheelSize
                0x00811e6a                OSTmrCfgTicksPerSec
                0x00811e6c                OSTmrSize
                0x00811e6e                OSTmrTblSize
                0x00811e70                OSTmrWheelSize
                0x00811e72                OSTmrWheelTblSize
                0x00811e74                OSDataSize
 .sdata         0x00811e78        0x4 ../SynthesizerUnitTestV3_bsp/\libucosii_bsp.a(alt_irq_vars.o)
                0x00811e78                alt_priority_mask
 .sdata         0x00811e7c        0x8 ../SynthesizerUnitTestV3_bsp/\libucosii_bsp.a(alt_tick.o)
                0x00811e7c                alt_alarm_list
 *(.sdata2 .sdata2.* .gnu.linkonce.s2.*)
                0x00811e84                . = ALIGN (0x4)
                0x00811e84                _edata = ABSOLUTE (.)
                0x00811e84                PROVIDE (edata, ABSOLUTE (.))
                0x00811e84                PROVIDE (__ram_rwdata_end, ABSOLUTE (.))
                0x00811e84                PROVIDE (__flash_rwdata_start, LOADADDR (.rwdata))

.bss            0x008139e0     0x7568
                0x008139e0                __bss_start = ABSOLUTE (.)
                0x008139e0                PROVIDE (__sbss_start, ABSOLUTE (.))
                0x008139e0                PROVIDE (___sbss_start, ABSOLUTE (.))
 *(.dynsbss)
 *(.sbss .sbss.* .gnu.linkonce.sb.*)
 .sbss          0x008139e0        0xc c:/altera/12.1sp1/nios2eds/bin/gnu/h-i686-mingw32/bin/../lib/gcc/nios2-elf/4.1.2/../../../../nios2-elf/lib\libc.a(lib_a-mallocr.o)
                0x008139e0                __malloc_top_pad
                0x008139e4                __malloc_max_sbrked_mem
                0x008139e8                __malloc_max_total_mem
 .sbss          0x008139ec        0x4 c:/altera/12.1sp1/nios2eds/bin/gnu/h-i686-mingw32/bin/../lib/gcc/nios2-elf/4.1.2/../../../../nios2-elf/lib\libc.a(lib_a-int_errno.o)
                0x008139ec                errno
 .sbss          0x008139f0        0x4 ../SynthesizerUnitTestV3_bsp/\libucosii_bsp.a(alt_dev.o)
                0x008139f0                alt_fd_list_lock
 .sbss          0x008139f4        0xc ../SynthesizerUnitTestV3_bsp/\libucosii_bsp.a(alt_main.o)
                0x008139f4                alt_argc
                0x008139f8                alt_argv
                0x008139fc                alt_envp
 .sbss          0x00813a00        0x8 ../SynthesizerUnitTestV3_bsp/\libucosii_bsp.a(alt_env_lock.o)
                0x00813a04                alt_envsem
 .sbss          0x00813a08        0x8 ../SynthesizerUnitTestV3_bsp/\libucosii_bsp.a(alt_malloc_lock.o)
                0x00813a0c                alt_heapsem
 .sbss          0x00813a10       0x50 ../SynthesizerUnitTestV3_bsp/\libucosii_bsp.a(os_core.o)
                0x00813a10                OSLockNesting
                0x00813a11                OSRunning
                0x00813a14                OSIdleCtr
                0x00813a18                OSPrioHighRdy
                0x00813a19                OSPrioCur
                0x00813a1c                OSTCBList
                0x00813a20                OSTickStepState
                0x00813a24                OSCtxSwCtr
                0x00813a28                OSIdleCtrMax
                0x00813a2c                OSTCBFreeList
                0x00813a30                OSCPUUsage
                0x00813a31                OSTaskCtr
                0x00813a34                OSMemFreeList
                0x00813a38                OSTCBHighRdy
                0x00813a3c                OSQFreeList
                0x00813a40                OSRdyGrp
                0x00813a41                OSRdyTbl
                0x00813a44                OSEventFreeList
                0x00813a48                OSIntNesting
                0x00813a4c                OSTCBCur
                0x00813a50                OSTime
                0x00813a54                OSFlagFreeList
                0x00813a58                OSStatRdy
                0x00813a5c                OSIdleCtrRun
 .sbss          0x00813a60        0x4 ../SynthesizerUnitTestV3_bsp/\libucosii_bsp.a(alt_irq_vars.o)
                0x00813a60                alt_irq_active
 .sbss          0x00813a64        0x8 ../SynthesizerUnitTestV3_bsp/\libucosii_bsp.a(alt_tick.o)
                0x00813a64                _alt_tick_rate
                0x00813a68                _alt_nticks
 *(.sbss2 .sbss2.* .gnu.linkonce.sb2.*)
 *(.scommon)
                0x00813a6c                PROVIDE (__sbss_end, ABSOLUTE (.))
                0x00813a6c                PROVIDE (___sbss_end, ABSOLUTE (.))
 *(.dynbss)
 *(.bss .bss.* .gnu.linkonce.b.*)
 .bss           0x00813a6c        0x0 ../SynthesizerUnitTestV3_bsp//obj/HAL/src/crt0.o
 .bss           0x00813a6c        0x0 obj/default/hello_ucosii.o
 .bss           0x00813a6c        0x0 c:/altera/12.1sp1/nios2eds/bin/gnu/h-i686-mingw32/bin/../lib/gcc/nios2-elf/4.1.2/../../../../nios2-elf/lib\libc.a(lib_a-puts.o)
 .bss           0x00813a6c        0x0 c:/altera/12.1sp1/nios2eds/bin/gnu/h-i686-mingw32/bin/../lib/gcc/nios2-elf/4.1.2/../../../../nios2-elf/lib\libc.a(lib_a-strlen.o)
 .bss           0x00813a6c        0x0 c:/altera/12.1sp1/nios2eds/bin/gnu/h-i686-mingw32/bin/../lib/gcc/nios2-elf/4.1.2/../../../../nios2-elf/lib\libc.a(lib_a-fvwrite.o)
 .bss           0x00813a6c        0x0 c:/altera/12.1sp1/nios2eds/bin/gnu/h-i686-mingw32/bin/../lib/gcc/nios2-elf/4.1.2/../../../../nios2-elf/lib\libc.a(lib_a-impure.o)
 .bss           0x00813a6c       0x28 c:/altera/12.1sp1/nios2eds/bin/gnu/h-i686-mingw32/bin/../lib/gcc/nios2-elf/4.1.2/../../../../nios2-elf/lib\libc.a(lib_a-mallocr.o)
                0x00813a6c                __malloc_current_mallinfo
 .bss           0x00813a94        0x0 c:/altera/12.1sp1/nios2eds/bin/gnu/h-i686-mingw32/bin/../lib/gcc/nios2-elf/4.1.2/../../../../nios2-elf/lib\libc.a(lib_a-memchr.o)
 .bss           0x00813a94        0x0 c:/altera/12.1sp1/nios2eds/bin/gnu/h-i686-mingw32/bin/../lib/gcc/nios2-elf/4.1.2/../../../../nios2-elf/lib\libc.a(lib_a-memcpy.o)
 .bss           0x00813a94        0x0 c:/altera/12.1sp1/nios2eds/bin/gnu/h-i686-mingw32/bin/../lib/gcc/nios2-elf/4.1.2/../../../../nios2-elf/lib\libc.a(lib_a-memmove.o)
 .bss           0x00813a94        0x0 c:/altera/12.1sp1/nios2eds/bin/gnu/h-i686-mingw32/bin/../lib/gcc/nios2-elf/4.1.2/../../../../nios2-elf/lib\libc.a(lib_a-reallocr.o)
 .bss           0x00813a94        0x0 c:/altera/12.1sp1/nios2eds/bin/gnu/h-i686-mingw32/bin/../lib/gcc/nios2-elf/4.1.2/../../../../nios2-elf/lib\libc.a(lib_a-sbrkr.o)
 .bss           0x00813a94        0x0 c:/altera/12.1sp1/nios2eds/bin/gnu/h-i686-mingw32/bin/../lib/gcc/nios2-elf/4.1.2/../../../../nios2-elf/lib\libc.a(lib_a-wsetup.o)
 .bss           0x00813a94        0x0 c:/altera/12.1sp1/nios2eds/bin/gnu/h-i686-mingw32/bin/../lib/gcc/nios2-elf/4.1.2/../../../../nios2-elf/lib\libc.a(lib_a-fflush.o)
 .bss           0x00813a94        0x0 c:/altera/12.1sp1/nios2eds/bin/gnu/h-i686-mingw32/bin/../lib/gcc/nios2-elf/4.1.2/../../../../nios2-elf/lib\libc.a(lib_a-findfp.o)
 .bss           0x00813a94        0x0 c:/altera/12.1sp1/nios2eds/bin/gnu/h-i686-mingw32/bin/../lib/gcc/nios2-elf/4.1.2/../../../../nios2-elf/lib\libc.a(lib_a-freer.o)
 .bss           0x00813a94        0x0 c:/altera/12.1sp1/nios2eds/bin/gnu/h-i686-mingw32/bin/../lib/gcc/nios2-elf/4.1.2/../../../../nios2-elf/lib\libc.a(lib_a-fwalk.o)
 .bss           0x00813a94        0x0 c:/altera/12.1sp1/nios2eds/bin/gnu/h-i686-mingw32/bin/../lib/gcc/nios2-elf/4.1.2/../../../../nios2-elf/lib\libc.a(lib_a-int_errno.o)
 .bss           0x00813a94        0x0 c:/altera/12.1sp1/nios2eds/bin/gnu/h-i686-mingw32/bin/../lib/gcc/nios2-elf/4.1.2/../../../../nios2-elf/lib\libc.a(lib_a-makebuf.o)
 .bss           0x00813a94        0x0 c:/altera/12.1sp1/nios2eds/bin/gnu/h-i686-mingw32/bin/../lib/gcc/nios2-elf/4.1.2/../../../../nios2-elf/lib\libc.a(lib_a-memset.o)
 .bss           0x00813a94        0x0 c:/altera/12.1sp1/nios2eds/bin/gnu/h-i686-mingw32/bin/../lib/gcc/nios2-elf/4.1.2/../../../../nios2-elf/lib\libc.a(lib_a-stdio.o)
 .bss           0x00813a94        0x0 c:/altera/12.1sp1/nios2eds/bin/gnu/h-i686-mingw32/bin/../lib/gcc/nios2-elf/4.1.2/../../../../nios2-elf/lib\libc.a(lib_a-writer.o)
 .bss           0x00813a94        0x0 c:/altera/12.1sp1/nios2eds/bin/gnu/h-i686-mingw32/bin/../lib/gcc/nios2-elf/4.1.2/../../../../nios2-elf/lib\libc.a(lib_a-closer.o)
 .bss           0x00813a94        0x0 c:/altera/12.1sp1/nios2eds/bin/gnu/h-i686-mingw32/bin/../lib/gcc/nios2-elf/4.1.2/../../../../nios2-elf/lib\libc.a(lib_a-fclose.o)
 .bss           0x00813a94        0x0 c:/altera/12.1sp1/nios2eds/bin/gnu/h-i686-mingw32/bin/../lib/gcc/nios2-elf/4.1.2/../../../../nios2-elf/lib\libc.a(lib_a-fstatr.o)
 .bss           0x00813a94        0x0 c:/altera/12.1sp1/nios2eds/bin/gnu/h-i686-mingw32/bin/../lib/gcc/nios2-elf/4.1.2/../../../../nios2-elf/lib\libc.a(lib_a-isattyr.o)
 .bss           0x00813a94        0x0 c:/altera/12.1sp1/nios2eds/bin/gnu/h-i686-mingw32/bin/../lib/gcc/nios2-elf/4.1.2/../../../../nios2-elf/lib\libc.a(lib_a-lseekr.o)
 .bss           0x00813a94        0x0 c:/altera/12.1sp1/nios2eds/bin/gnu/h-i686-mingw32/bin/../lib/gcc/nios2-elf/4.1.2/../../../../nios2-elf/lib\libc.a(lib_a-readr.o)
 .bss           0x00813a94        0x0 ../SynthesizerUnitTestV3_bsp/\libucosii_bsp.a(alt_close.o)
 .bss           0x00813a94        0x0 ../SynthesizerUnitTestV3_bsp/\libucosii_bsp.a(alt_dev.o)
 .bss           0x00813a94        0x0 ../SynthesizerUnitTestV3_bsp/\libucosii_bsp.a(alt_errno.o)
 .bss           0x00813a94        0x0 ../SynthesizerUnitTestV3_bsp/\libucosii_bsp.a(alt_fstat.o)
 .bss           0x00813a94        0x0 ../SynthesizerUnitTestV3_bsp/\libucosii_bsp.a(alt_isatty.o)
 .bss           0x00813a94        0x0 ../SynthesizerUnitTestV3_bsp/\libucosii_bsp.a(alt_load.o)
 .bss           0x00813a94        0x0 ../SynthesizerUnitTestV3_bsp/\libucosii_bsp.a(alt_lseek.o)
 .bss           0x00813a94        0x0 ../SynthesizerUnitTestV3_bsp/\libucosii_bsp.a(alt_main.o)
 .bss           0x00813a94        0x0 ../SynthesizerUnitTestV3_bsp/\libucosii_bsp.a(alt_read.o)
 .bss           0x00813a94        0x0 ../SynthesizerUnitTestV3_bsp/\libucosii_bsp.a(alt_release_fd.o)
 .bss           0x00813a94        0x0 ../SynthesizerUnitTestV3_bsp/\libucosii_bsp.a(alt_sbrk.o)
 .bss           0x00813a94        0x0 ../SynthesizerUnitTestV3_bsp/\libucosii_bsp.a(alt_write.o)
 .bss           0x00813a94        0x0 ../SynthesizerUnitTestV3_bsp/\libucosii_bsp.a(alt_env_lock.o)
 .bss           0x00813a94        0x0 ../SynthesizerUnitTestV3_bsp/\libucosii_bsp.a(alt_malloc_lock.o)
 .bss           0x00813a94        0x0 ../SynthesizerUnitTestV3_bsp/\libucosii_bsp.a(os_core.o)
 .bss           0x00813a94        0x0 ../SynthesizerUnitTestV3_bsp/\libucosii_bsp.a(os_dbg.o)
 .bss           0x00813a94        0x0 ../SynthesizerUnitTestV3_bsp/\libucosii_bsp.a(os_flag.o)
 .bss           0x00813a94        0x0 ../SynthesizerUnitTestV3_bsp/\libucosii_bsp.a(os_mem.o)
 .bss           0x00813a94        0x0 ../SynthesizerUnitTestV3_bsp/\libucosii_bsp.a(os_q.o)
 .bss           0x00813a94        0x0 ../SynthesizerUnitTestV3_bsp/\libucosii_bsp.a(os_sem.o)
 .bss           0x00813a94        0x0 ../SynthesizerUnitTestV3_bsp/\libucosii_bsp.a(os_task.o)
 .bss           0x00813a94        0x0 ../SynthesizerUnitTestV3_bsp/\libucosii_bsp.a(os_time.o)
 .bss           0x00813a94        0x0 ../SynthesizerUnitTestV3_bsp/\libucosii_bsp.a(alt_sys_init.o)
 .bss           0x00813a94        0x0 ../SynthesizerUnitTestV3_bsp/\libucosii_bsp.a(altera_avalon_fifo_util.o)
 .bss           0x00813a94        0x0 ../SynthesizerUnitTestV3_bsp/\libucosii_bsp.a(altera_avalon_jtag_uart_fd.o)
 .bss           0x00813a94        0x0 ../SynthesizerUnitTestV3_bsp/\libucosii_bsp.a(altera_avalon_jtag_uart_init.o)
 .bss           0x00813a94        0x0 ../SynthesizerUnitTestV3_bsp/\libucosii_bsp.a(altera_avalon_jtag_uart_ioctl.o)
 .bss           0x00813a94        0x0 ../SynthesizerUnitTestV3_bsp/\libucosii_bsp.a(altera_avalon_jtag_uart_read.o)
 .bss           0x00813a94        0x0 ../SynthesizerUnitTestV3_bsp/\libucosii_bsp.a(altera_avalon_jtag_uart_write.o)
 .bss           0x00813a94        0x0 ../SynthesizerUnitTestV3_bsp/\libucosii_bsp.a(altera_avalon_timer_sc.o)
 .bss           0x00813a94        0x0 ../SynthesizerUnitTestV3_bsp/\libucosii_bsp.a(altera_up_avalon_audio.o)
 .bss           0x00813a94        0x0 ../SynthesizerUnitTestV3_bsp/\libucosii_bsp.a(altera_up_avalon_audio_and_video_config.o)
 .bss           0x00813a94        0x0 ../SynthesizerUnitTestV3_bsp/\libucosii_bsp.a(altera_up_avalon_character_lcd.o)
 .bss           0x00813a94        0x0 ../SynthesizerUnitTestV3_bsp/\libucosii_bsp.a(alt_alarm_start.o)
 .bss           0x00813a94        0x0 ../SynthesizerUnitTestV3_bsp/\libucosii_bsp.a(alt_dcache_flush_all.o)
 .bss           0x00813a94        0x0 ../SynthesizerUnitTestV3_bsp/\libucosii_bsp.a(alt_dev_llist_insert.o)
 .bss           0x00813a94        0x0 ../SynthesizerUnitTestV3_bsp/\libucosii_bsp.a(alt_do_ctors.o)
 .bss           0x00813a94        0x0 ../SynthesizerUnitTestV3_bsp/\libucosii_bsp.a(alt_do_dtors.o)
 .bss           0x00813a94        0x0 ../SynthesizerUnitTestV3_bsp/\libucosii_bsp.a(alt_find_dev.o)
 .bss           0x00813a94        0x0 ../SynthesizerUnitTestV3_bsp/\libucosii_bsp.a(alt_icache_flush_all.o)
 .bss           0x00813a94        0x0 ../SynthesizerUnitTestV3_bsp/\libucosii_bsp.a(alt_io_redirect.o)
 .bss           0x00813a94        0x0 ../SynthesizerUnitTestV3_bsp/\libucosii_bsp.a(alt_irq_register.o)
 .bss           0x00813a94        0x0 ../SynthesizerUnitTestV3_bsp/\libucosii_bsp.a(alt_irq_vars.o)
 .bss           0x00813a94        0x0 ../SynthesizerUnitTestV3_bsp/\libucosii_bsp.a(alt_open.o)
 .bss           0x00813a94        0x0 ../SynthesizerUnitTestV3_bsp/\libucosii_bsp.a(alt_tick.o)
 .bss           0x00813a94        0x0 ../SynthesizerUnitTestV3_bsp/\libucosii_bsp.a(altera_nios2_qsys_irq.o)
 .bss           0x00813a94        0x0 ../SynthesizerUnitTestV3_bsp/\libucosii_bsp.a(os_cpu_a.o)
 .bss           0x00813a94        0x0 ../SynthesizerUnitTestV3_bsp/\libucosii_bsp.a(os_cpu_c.o)
 .bss           0x00813a94        0x0 ../SynthesizerUnitTestV3_bsp/\libucosii_bsp.a(alt_find_file.o)
 .bss           0x00813a94        0x0 ../SynthesizerUnitTestV3_bsp/\libucosii_bsp.a(alt_get_fd.o)
 .bss           0x00813a94        0x0 ../SynthesizerUnitTestV3_bsp/\libucosii_bsp.a(alt_icache_flush.o)
 .bss           0x00813a94        0x0 ../SynthesizerUnitTestV3_bsp/\libucosii_bsp.a(alt_irq_entry.o)
 .bss           0x00813a94        0x0 ../SynthesizerUnitTestV3_bsp/\libucosii_bsp.a(alt_irq_handler.o)
 .bss           0x00813a94        0x0 ../SynthesizerUnitTestV3_bsp/\libucosii_bsp.a(alt_exception_entry.o)
 .bss           0x00813a94        0x0 c:/altera/12.1sp1/nios2eds/bin/gnu/h-i686-mingw32/bin/../lib/gcc/nios2-elf/4.1.2/../../../../nios2-elf/lib\libc.a(lib_a-atexit.o)
 .bss           0x00813a94        0x0 c:/altera/12.1sp1/nios2eds/bin/gnu/h-i686-mingw32/bin/../lib/gcc/nios2-elf/4.1.2/../../../../nios2-elf/lib\libc.a(lib_a-exit.o)
 .bss           0x00813a94        0x0 c:/altera/12.1sp1/nios2eds/bin/gnu/h-i686-mingw32/bin/../lib/gcc/nios2-elf/4.1.2/../../../../nios2-elf/lib\libc.a(lib_a-memcmp.o)
 .bss           0x00813a94        0x0 c:/altera/12.1sp1/nios2eds/bin/gnu/h-i686-mingw32/bin/../lib/gcc/nios2-elf/4.1.2/../../../../nios2-elf/lib\libc.a(lib_a-__atexit.o)
 .bss           0x00813a94        0x0 c:/altera/12.1sp1/nios2eds/bin/gnu/h-i686-mingw32/bin/../lib/gcc/nios2-elf/4.1.2/../../../../nios2-elf/lib\libc.a(lib_a-__call_atexit.o)
 .bss           0x00813a94        0x0 c:/altera/12.1sp1/nios2eds/bin/gnu/h-i686-mingw32/bin/../lib/gcc/nios2-elf/4.1.2\libgcc.a(lib2-divmod.o)
 .bss           0x00813a94        0x0 ../SynthesizerUnitTestV3_bsp/\libucosii_bsp.a(alt_exit.o)
 *(COMMON)
 COMMON         0x00813a94     0x4000 obj/default/hello_ucosii.o
                0x00813a94                task1_stk
                0x00815a94                task2_stk
 COMMON         0x00817a94     0x3224 ../SynthesizerUnitTestV3_bsp/\libucosii_bsp.a(os_core.o)
                0x00817a94                OSFlagTbl
                0x00817e04                OSMemTbl
                0x00818a34                OSTaskStatStk
                0x00819234                OSQTbl
                0x00819414                OSTaskIdleStk
                0x00819c14                OSEventTbl
                0x0081a754                OSTCBTbl
                0x0081ac64                OSTCBPrioTbl
 COMMON         0x0081acb8      0x100 ../SynthesizerUnitTestV3_bsp/\libucosii_bsp.a(alt_irq_handler.o)
                0x0081acb8                alt_irq
 COMMON         0x0081adb8      0x190 c:/altera/12.1sp1/nios2eds/bin/gnu/h-i686-mingw32/bin/../lib/gcc/nios2-elf/4.1.2/../../../../nios2-elf/lib\libc.a(lib_a-atexit.o)
                0x0081adb8                _atexit0
                0x0081af48                . = ALIGN (0x4)
                0x0081af48                __bss_end = ABSOLUTE (.)

.sdram_0        0x0081af48        0x0
                0x0081af48                PROVIDE (_alt_partition_sdram_0_start, ABSOLUTE (.))
 *(.sdram_0. sdram_0.*)
                0x0081af48                . = ALIGN (0x4)
                0x0081af48                PROVIDE (_alt_partition_sdram_0_end, ABSOLUTE (.))
                0x0081af48                _end = ABSOLUTE (.)
                0x0081af48                end = ABSOLUTE (.)
                0x0081af48                __alt_stack_base = ABSOLUTE (.)
                0x0081af48                PROVIDE (_alt_partition_sdram_0_load_addr, LOADADDR (.sdram_0))

.sram_0         0x01080000        0x0 load address 0x0081af48
                0x01080000                PROVIDE (_alt_partition_sram_0_start, ABSOLUTE (.))
 *(.sram_0. sram_0.*)
                0x01080000                . = ALIGN (0x4)
                0x01080000                PROVIDE (_alt_partition_sram_0_end, ABSOLUTE (.))
                0x0081af48                PROVIDE (_alt_partition_sram_0_load_addr, LOADADDR (.sram_0))

.onchip_memory2_0
                0x011041c0        0x0 load address 0x0081af48
                0x011041c0                PROVIDE (_alt_partition_onchip_memory2_0_start, ABSOLUTE (.))
 *(.onchip_memory2_0. onchip_memory2_0.*)
                0x011041c0                . = ALIGN (0x4)
                0x011041c0                PROVIDE (_alt_partition_onchip_memory2_0_end, ABSOLUTE (.))
                0x0081af48                PROVIDE (_alt_partition_onchip_memory2_0_load_addr, LOADADDR (.onchip_memory2_0))

.stab
 *(.stab)

.stabstr
 *(.stabstr)

.stab.excl
 *(.stab.excl)

.stab.exclstr
 *(.stab.exclstr)

.stab.index
 *(.stab.index)

.stab.indexstr
 *(.stab.indexstr)

.comment        0x00000000       0x26
 *(.comment)
 .comment       0x00000000       0x26 obj/default/hello_ucosii.o
                                 0x27 (size before relaxing)
 .comment       0x00000000       0x27 c:/altera/12.1sp1/nios2eds/bin/gnu/h-i686-mingw32/bin/../lib/gcc/nios2-elf/4.1.2/../../../../nios2-elf/lib\libc.a(lib_a-puts.o)
 .comment       0x00000000       0x27 c:/altera/12.1sp1/nios2eds/bin/gnu/h-i686-mingw32/bin/../lib/gcc/nios2-elf/4.1.2/../../../../nios2-elf/lib\libc.a(lib_a-strlen.o)
 .comment       0x00000000       0x27 c:/altera/12.1sp1/nios2eds/bin/gnu/h-i686-mingw32/bin/../lib/gcc/nios2-elf/4.1.2/../../../../nios2-elf/lib\libc.a(lib_a-fvwrite.o)
 .comment       0x00000000       0x27 c:/altera/12.1sp1/nios2eds/bin/gnu/h-i686-mingw32/bin/../lib/gcc/nios2-elf/4.1.2/../../../../nios2-elf/lib\libc.a(lib_a-impure.o)
 .comment       0x00000000       0x27 c:/altera/12.1sp1/nios2eds/bin/gnu/h-i686-mingw32/bin/../lib/gcc/nios2-elf/4.1.2/../../../../nios2-elf/lib\libc.a(lib_a-mallocr.o)
 .comment       0x00000000       0x27 c:/altera/12.1sp1/nios2eds/bin/gnu/h-i686-mingw32/bin/../lib/gcc/nios2-elf/4.1.2/../../../../nios2-elf/lib\libc.a(lib_a-memchr.o)
 .comment       0x00000000       0x27 c:/altera/12.1sp1/nios2eds/bin/gnu/h-i686-mingw32/bin/../lib/gcc/nios2-elf/4.1.2/../../../../nios2-elf/lib\libc.a(lib_a-memcpy.o)
 .comment       0x00000000       0x27 c:/altera/12.1sp1/nios2eds/bin/gnu/h-i686-mingw32/bin/../lib/gcc/nios2-elf/4.1.2/../../../../nios2-elf/lib\libc.a(lib_a-memmove.o)
 .comment       0x00000000       0x27 c:/altera/12.1sp1/nios2eds/bin/gnu/h-i686-mingw32/bin/../lib/gcc/nios2-elf/4.1.2/../../../../nios2-elf/lib\libc.a(lib_a-reallocr.o)
 .comment       0x00000000       0x27 c:/altera/12.1sp1/nios2eds/bin/gnu/h-i686-mingw32/bin/../lib/gcc/nios2-elf/4.1.2/../../../../nios2-elf/lib\libc.a(lib_a-sbrkr.o)
 .comment       0x00000000       0x27 c:/altera/12.1sp1/nios2eds/bin/gnu/h-i686-mingw32/bin/../lib/gcc/nios2-elf/4.1.2/../../../../nios2-elf/lib\libc.a(lib_a-wsetup.o)
 .comment       0x00000000       0x27 c:/altera/12.1sp1/nios2eds/bin/gnu/h-i686-mingw32/bin/../lib/gcc/nios2-elf/4.1.2/../../../../nios2-elf/lib\libc.a(lib_a-fflush.o)
 .comment       0x00000000       0x27 c:/altera/12.1sp1/nios2eds/bin/gnu/h-i686-mingw32/bin/../lib/gcc/nios2-elf/4.1.2/../../../../nios2-elf/lib\libc.a(lib_a-findfp.o)
 .comment       0x00000000       0x27 c:/altera/12.1sp1/nios2eds/bin/gnu/h-i686-mingw32/bin/../lib/gcc/nios2-elf/4.1.2/../../../../nios2-elf/lib\libc.a(lib_a-freer.o)
 .comment       0x00000000       0x27 c:/altera/12.1sp1/nios2eds/bin/gnu/h-i686-mingw32/bin/../lib/gcc/nios2-elf/4.1.2/../../../../nios2-elf/lib\libc.a(lib_a-fwalk.o)
 .comment       0x00000000       0x27 c:/altera/12.1sp1/nios2eds/bin/gnu/h-i686-mingw32/bin/../lib/gcc/nios2-elf/4.1.2/../../../../nios2-elf/lib\libc.a(lib_a-int_errno.o)
 .comment       0x00000000       0x27 c:/altera/12.1sp1/nios2eds/bin/gnu/h-i686-mingw32/bin/../lib/gcc/nios2-elf/4.1.2/../../../../nios2-elf/lib\libc.a(lib_a-makebuf.o)
 .comment       0x00000000       0x27 c:/altera/12.1sp1/nios2eds/bin/gnu/h-i686-mingw32/bin/../lib/gcc/nios2-elf/4.1.2/../../../../nios2-elf/lib\libc.a(lib_a-memset.o)
 .comment       0x00000000       0x27 c:/altera/12.1sp1/nios2eds/bin/gnu/h-i686-mingw32/bin/../lib/gcc/nios2-elf/4.1.2/../../../../nios2-elf/lib\libc.a(lib_a-stdio.o)
 .comment       0x00000000       0x27 c:/altera/12.1sp1/nios2eds/bin/gnu/h-i686-mingw32/bin/../lib/gcc/nios2-elf/4.1.2/../../../../nios2-elf/lib\libc.a(lib_a-writer.o)
 .comment       0x00000000       0x27 c:/altera/12.1sp1/nios2eds/bin/gnu/h-i686-mingw32/bin/../lib/gcc/nios2-elf/4.1.2/../../../../nios2-elf/lib\libc.a(lib_a-closer.o)
 .comment       0x00000000       0x27 c:/altera/12.1sp1/nios2eds/bin/gnu/h-i686-mingw32/bin/../lib/gcc/nios2-elf/4.1.2/../../../../nios2-elf/lib\libc.a(lib_a-fclose.o)
 .comment       0x00000000       0x27 c:/altera/12.1sp1/nios2eds/bin/gnu/h-i686-mingw32/bin/../lib/gcc/nios2-elf/4.1.2/../../../../nios2-elf/lib\libc.a(lib_a-fstatr.o)
 .comment       0x00000000       0x27 c:/altera/12.1sp1/nios2eds/bin/gnu/h-i686-mingw32/bin/../lib/gcc/nios2-elf/4.1.2/../../../../nios2-elf/lib\libc.a(lib_a-isattyr.o)
 .comment       0x00000000       0x27 c:/altera/12.1sp1/nios2eds/bin/gnu/h-i686-mingw32/bin/../lib/gcc/nios2-elf/4.1.2/../../../../nios2-elf/lib\libc.a(lib_a-lseekr.o)
 .comment       0x00000000       0x27 c:/altera/12.1sp1/nios2eds/bin/gnu/h-i686-mingw32/bin/../lib/gcc/nios2-elf/4.1.2/../../../../nios2-elf/lib\libc.a(lib_a-readr.o)
 .comment       0x00000000       0x27 ../SynthesizerUnitTestV3_bsp/\libucosii_bsp.a(alt_close.o)
 .comment       0x00000000       0x27 ../SynthesizerUnitTestV3_bsp/\libucosii_bsp.a(alt_dev.o)
 .comment       0x00000000       0x27 ../SynthesizerUnitTestV3_bsp/\libucosii_bsp.a(alt_errno.o)
 .comment       0x00000000       0x27 ../SynthesizerUnitTestV3_bsp/\libucosii_bsp.a(alt_fstat.o)
 .comment       0x00000000       0x27 ../SynthesizerUnitTestV3_bsp/\libucosii_bsp.a(alt_isatty.o)
 .comment       0x00000000       0x27 ../SynthesizerUnitTestV3_bsp/\libucosii_bsp.a(alt_load.o)
 .comment       0x00000000       0x27 ../SynthesizerUnitTestV3_bsp/\libucosii_bsp.a(alt_lseek.o)
 .comment       0x00000000       0x27 ../SynthesizerUnitTestV3_bsp/\libucosii_bsp.a(alt_main.o)
 .comment       0x00000000       0x27 ../SynthesizerUnitTestV3_bsp/\libucosii_bsp.a(alt_read.o)
 .comment       0x00000000       0x27 ../SynthesizerUnitTestV3_bsp/\libucosii_bsp.a(alt_release_fd.o)
 .comment       0x00000000       0x27 ../SynthesizerUnitTestV3_bsp/\libucosii_bsp.a(alt_sbrk.o)
 .comment       0x00000000       0x27 ../SynthesizerUnitTestV3_bsp/\libucosii_bsp.a(alt_write.o)
 .comment       0x00000000       0x27 ../SynthesizerUnitTestV3_bsp/\libucosii_bsp.a(alt_env_lock.o)
 .comment       0x00000000       0x27 ../SynthesizerUnitTestV3_bsp/\libucosii_bsp.a(alt_malloc_lock.o)
 .comment       0x00000000       0x27 ../SynthesizerUnitTestV3_bsp/\libucosii_bsp.a(os_core.o)
 .comment       0x00000000       0x27 ../SynthesizerUnitTestV3_bsp/\libucosii_bsp.a(os_dbg.o)
 .comment       0x00000000       0x27 ../SynthesizerUnitTestV3_bsp/\libucosii_bsp.a(os_flag.o)
 .comment       0x00000000       0x27 ../SynthesizerUnitTestV3_bsp/\libucosii_bsp.a(os_mem.o)
 .comment       0x00000000       0x27 ../SynthesizerUnitTestV3_bsp/\libucosii_bsp.a(os_q.o)
 .comment       0x00000000       0x27 ../SynthesizerUnitTestV3_bsp/\libucosii_bsp.a(os_sem.o)
 .comment       0x00000000       0x27 ../SynthesizerUnitTestV3_bsp/\libucosii_bsp.a(os_task.o)
 .comment       0x00000000       0x27 ../SynthesizerUnitTestV3_bsp/\libucosii_bsp.a(os_time.o)
 .comment       0x00000000       0x27 ../SynthesizerUnitTestV3_bsp/\libucosii_bsp.a(alt_sys_init.o)
 .comment       0x00000000       0x27 ../SynthesizerUnitTestV3_bsp/\libucosii_bsp.a(altera_avalon_fifo_util.o)
 .comment       0x00000000       0x27 ../SynthesizerUnitTestV3_bsp/\libucosii_bsp.a(altera_avalon_jtag_uart_fd.o)
 .comment       0x00000000       0x27 ../SynthesizerUnitTestV3_bsp/\libucosii_bsp.a(altera_avalon_jtag_uart_init.o)
 .comment       0x00000000       0x27 ../SynthesizerUnitTestV3_bsp/\libucosii_bsp.a(altera_avalon_jtag_uart_ioctl.o)
 .comment       0x00000000       0x27 ../SynthesizerUnitTestV3_bsp/\libucosii_bsp.a(altera_avalon_jtag_uart_read.o)
 .comment       0x00000000       0x27 ../SynthesizerUnitTestV3_bsp/\libucosii_bsp.a(altera_avalon_jtag_uart_write.o)
 .comment       0x00000000       0x27 ../SynthesizerUnitTestV3_bsp/\libucosii_bsp.a(altera_avalon_timer_sc.o)
 .comment       0x00000000       0x27 ../SynthesizerUnitTestV3_bsp/\libucosii_bsp.a(altera_up_avalon_audio.o)
 .comment       0x00000000       0x27 ../SynthesizerUnitTestV3_bsp/\libucosii_bsp.a(altera_up_avalon_audio_and_video_config.o)
 .comment       0x00000000       0x27 ../SynthesizerUnitTestV3_bsp/\libucosii_bsp.a(altera_up_avalon_character_lcd.o)
 .comment       0x00000000       0x27 ../SynthesizerUnitTestV3_bsp/\libucosii_bsp.a(alt_alarm_start.o)
 .comment       0x00000000       0x27 ../SynthesizerUnitTestV3_bsp/\libucosii_bsp.a(alt_dcache_flush_all.o)
 .comment       0x00000000       0x27 ../SynthesizerUnitTestV3_bsp/\libucosii_bsp.a(alt_dev_llist_insert.o)
 .comment       0x00000000       0x27 ../SynthesizerUnitTestV3_bsp/\libucosii_bsp.a(alt_do_ctors.o)
 .comment       0x00000000       0x27 ../SynthesizerUnitTestV3_bsp/\libucosii_bsp.a(alt_do_dtors.o)
 .comment       0x00000000       0x27 ../SynthesizerUnitTestV3_bsp/\libucosii_bsp.a(alt_find_dev.o)
 .comment       0x00000000       0x27 ../SynthesizerUnitTestV3_bsp/\libucosii_bsp.a(alt_icache_flush_all.o)
 .comment       0x00000000       0x27 ../SynthesizerUnitTestV3_bsp/\libucosii_bsp.a(alt_io_redirect.o)
 .comment       0x00000000       0x27 ../SynthesizerUnitTestV3_bsp/\libucosii_bsp.a(alt_irq_register.o)
 .comment       0x00000000       0x27 ../SynthesizerUnitTestV3_bsp/\libucosii_bsp.a(alt_irq_vars.o)
 .comment       0x00000000       0x27 ../SynthesizerUnitTestV3_bsp/\libucosii_bsp.a(alt_open.o)
 .comment       0x00000000       0x27 ../SynthesizerUnitTestV3_bsp/\libucosii_bsp.a(alt_tick.o)
 .comment       0x00000000       0x27 ../SynthesizerUnitTestV3_bsp/\libucosii_bsp.a(altera_nios2_qsys_irq.o)
 .comment       0x00000000       0x27 ../SynthesizerUnitTestV3_bsp/\libucosii_bsp.a(os_cpu_c.o)
 .comment       0x00000000       0x27 ../SynthesizerUnitTestV3_bsp/\libucosii_bsp.a(alt_find_file.o)
 .comment       0x00000000       0x27 ../SynthesizerUnitTestV3_bsp/\libucosii_bsp.a(alt_get_fd.o)
 .comment       0x00000000       0x27 ../SynthesizerUnitTestV3_bsp/\libucosii_bsp.a(alt_icache_flush.o)
 .comment       0x00000000       0x27 ../SynthesizerUnitTestV3_bsp/\libucosii_bsp.a(alt_irq_handler.o)
 .comment       0x00000000       0x27 c:/altera/12.1sp1/nios2eds/bin/gnu/h-i686-mingw32/bin/../lib/gcc/nios2-elf/4.1.2/../../../../nios2-elf/lib\libc.a(lib_a-atexit.o)
 .comment       0x00000000       0x27 c:/altera/12.1sp1/nios2eds/bin/gnu/h-i686-mingw32/bin/../lib/gcc/nios2-elf/4.1.2/../../../../nios2-elf/lib\libc.a(lib_a-exit.o)
 .comment       0x00000000       0x27 c:/altera/12.1sp1/nios2eds/bin/gnu/h-i686-mingw32/bin/../lib/gcc/nios2-elf/4.1.2/../../../../nios2-elf/lib\libc.a(lib_a-memcmp.o)
 .comment       0x00000000       0x27 c:/altera/12.1sp1/nios2eds/bin/gnu/h-i686-mingw32/bin/../lib/gcc/nios2-elf/4.1.2/../../../../nios2-elf/lib\libc.a(lib_a-__atexit.o)
 .comment       0x00000000       0x27 c:/altera/12.1sp1/nios2eds/bin/gnu/h-i686-mingw32/bin/../lib/gcc/nios2-elf/4.1.2/../../../../nios2-elf/lib\libc.a(lib_a-__call_atexit.o)
 .comment       0x00000000       0x27 c:/altera/12.1sp1/nios2eds/bin/gnu/h-i686-mingw32/bin/../lib/gcc/nios2-elf/4.1.2\libgcc.a(lib2-divmod.o)
 .comment       0x00000000       0x27 ../SynthesizerUnitTestV3_bsp/\libucosii_bsp.a(alt_exit.o)

.debug
 *(.debug)

.line
 *(.line)

.debug_srcinfo
 *(.debug_srcinfo)

.debug_sfnames
 *(.debug_sfnames)

.debug_aranges  0x00000000      0xad8
 *(.debug_aranges)
 .debug_aranges
                0x00000000       0x28 ../SynthesizerUnitTestV3_bsp//obj/HAL/src/crt0.o
 .debug_aranges
                0x00000028       0x20 obj/default/hello_ucosii.o
 .debug_aranges
                0x00000048       0x20 c:/altera/12.1sp1/nios2eds/bin/gnu/h-i686-mingw32/bin/../lib/gcc/nios2-elf/4.1.2/../../../../nios2-elf/lib\libc.a(lib_a-puts.o)
 .debug_aranges
                0x00000068       0x20 c:/altera/12.1sp1/nios2eds/bin/gnu/h-i686-mingw32/bin/../lib/gcc/nios2-elf/4.1.2/../../../../nios2-elf/lib\libc.a(lib_a-strlen.o)
 .debug_aranges
                0x00000088       0x20 c:/altera/12.1sp1/nios2eds/bin/gnu/h-i686-mingw32/bin/../lib/gcc/nios2-elf/4.1.2/../../../../nios2-elf/lib\libc.a(lib_a-fvwrite.o)
 .debug_aranges
                0x000000a8       0x20 c:/altera/12.1sp1/nios2eds/bin/gnu/h-i686-mingw32/bin/../lib/gcc/nios2-elf/4.1.2/../../../../nios2-elf/lib\libc.a(lib_a-mallocr.o)
 .debug_aranges
                0x000000c8       0x20 c:/altera/12.1sp1/nios2eds/bin/gnu/h-i686-mingw32/bin/../lib/gcc/nios2-elf/4.1.2/../../../../nios2-elf/lib\libc.a(lib_a-memchr.o)
 .debug_aranges
                0x000000e8       0x20 c:/altera/12.1sp1/nios2eds/bin/gnu/h-i686-mingw32/bin/../lib/gcc/nios2-elf/4.1.2/../../../../nios2-elf/lib\libc.a(lib_a-memcpy.o)
 .debug_aranges
                0x00000108       0x20 c:/altera/12.1sp1/nios2eds/bin/gnu/h-i686-mingw32/bin/../lib/gcc/nios2-elf/4.1.2/../../../../nios2-elf/lib\libc.a(lib_a-memmove.o)
 .debug_aranges
                0x00000128       0x20 c:/altera/12.1sp1/nios2eds/bin/gnu/h-i686-mingw32/bin/../lib/gcc/nios2-elf/4.1.2/../../../../nios2-elf/lib\libc.a(lib_a-reallocr.o)
 .debug_aranges
                0x00000148       0x20 c:/altera/12.1sp1/nios2eds/bin/gnu/h-i686-mingw32/bin/../lib/gcc/nios2-elf/4.1.2/../../../../nios2-elf/lib\libc.a(lib_a-sbrkr.o)
 .debug_aranges
                0x00000168       0x20 c:/altera/12.1sp1/nios2eds/bin/gnu/h-i686-mingw32/bin/../lib/gcc/nios2-elf/4.1.2/../../../../nios2-elf/lib\libc.a(lib_a-wsetup.o)
 .debug_aranges
                0x00000188       0x20 c:/altera/12.1sp1/nios2eds/bin/gnu/h-i686-mingw32/bin/../lib/gcc/nios2-elf/4.1.2/../../../../nios2-elf/lib\libc.a(lib_a-fflush.o)
 .debug_aranges
                0x000001a8       0x20 c:/altera/12.1sp1/nios2eds/bin/gnu/h-i686-mingw32/bin/../lib/gcc/nios2-elf/4.1.2/../../../../nios2-elf/lib\libc.a(lib_a-findfp.o)
 .debug_aranges
                0x000001c8       0x20 c:/altera/12.1sp1/nios2eds/bin/gnu/h-i686-mingw32/bin/../lib/gcc/nios2-elf/4.1.2/../../../../nios2-elf/lib\libc.a(lib_a-freer.o)
 .debug_aranges
                0x000001e8       0x20 c:/altera/12.1sp1/nios2eds/bin/gnu/h-i686-mingw32/bin/../lib/gcc/nios2-elf/4.1.2/../../../../nios2-elf/lib\libc.a(lib_a-fwalk.o)
 .debug_aranges
                0x00000208       0x20 c:/altera/12.1sp1/nios2eds/bin/gnu/h-i686-mingw32/bin/../lib/gcc/nios2-elf/4.1.2/../../../../nios2-elf/lib\libc.a(lib_a-makebuf.o)
 .debug_aranges
                0x00000228       0x20 c:/altera/12.1sp1/nios2eds/bin/gnu/h-i686-mingw32/bin/../lib/gcc/nios2-elf/4.1.2/../../../../nios2-elf/lib\libc.a(lib_a-memset.o)
 .debug_aranges
                0x00000248       0x20 c:/altera/12.1sp1/nios2eds/bin/gnu/h-i686-mingw32/bin/../lib/gcc/nios2-elf/4.1.2/../../../../nios2-elf/lib\libc.a(lib_a-stdio.o)
 .debug_aranges
                0x00000268       0x20 c:/altera/12.1sp1/nios2eds/bin/gnu/h-i686-mingw32/bin/../lib/gcc/nios2-elf/4.1.2/../../../../nios2-elf/lib\libc.a(lib_a-writer.o)
 .debug_aranges
                0x00000288       0x20 c:/altera/12.1sp1/nios2eds/bin/gnu/h-i686-mingw32/bin/../lib/gcc/nios2-elf/4.1.2/../../../../nios2-elf/lib\libc.a(lib_a-closer.o)
 .debug_aranges
                0x000002a8       0x20 c:/altera/12.1sp1/nios2eds/bin/gnu/h-i686-mingw32/bin/../lib/gcc/nios2-elf/4.1.2/../../../../nios2-elf/lib\libc.a(lib_a-fclose.o)
 .debug_aranges
                0x000002c8       0x20 c:/altera/12.1sp1/nios2eds/bin/gnu/h-i686-mingw32/bin/../lib/gcc/nios2-elf/4.1.2/../../../../nios2-elf/lib\libc.a(lib_a-fstatr.o)
 .debug_aranges
                0x000002e8       0x20 c:/altera/12.1sp1/nios2eds/bin/gnu/h-i686-mingw32/bin/../lib/gcc/nios2-elf/4.1.2/../../../../nios2-elf/lib\libc.a(lib_a-isattyr.o)
 .debug_aranges
                0x00000308       0x20 c:/altera/12.1sp1/nios2eds/bin/gnu/h-i686-mingw32/bin/../lib/gcc/nios2-elf/4.1.2/../../../../nios2-elf/lib\libc.a(lib_a-lseekr.o)
 .debug_aranges
                0x00000328       0x20 c:/altera/12.1sp1/nios2eds/bin/gnu/h-i686-mingw32/bin/../lib/gcc/nios2-elf/4.1.2/../../../../nios2-elf/lib\libc.a(lib_a-readr.o)
 .debug_aranges
                0x00000348       0x20 ../SynthesizerUnitTestV3_bsp/\libucosii_bsp.a(alt_close.o)
 .debug_aranges
                0x00000368       0x20 ../SynthesizerUnitTestV3_bsp/\libucosii_bsp.a(alt_dev.o)
 .debug_aranges
                0x00000388       0x20 ../SynthesizerUnitTestV3_bsp/\libucosii_bsp.a(alt_fstat.o)
 .debug_aranges
                0x000003a8       0x20 ../SynthesizerUnitTestV3_bsp/\libucosii_bsp.a(alt_isatty.o)
 .debug_aranges
                0x000003c8       0x20 ../SynthesizerUnitTestV3_bsp/\libucosii_bsp.a(alt_load.o)
 .debug_aranges
                0x000003e8       0x20 ../SynthesizerUnitTestV3_bsp/\libucosii_bsp.a(alt_lseek.o)
 .debug_aranges
                0x00000408       0x20 ../SynthesizerUnitTestV3_bsp/\libucosii_bsp.a(alt_main.o)
 .debug_aranges
                0x00000428       0x20 ../SynthesizerUnitTestV3_bsp/\libucosii_bsp.a(alt_read.o)
 .debug_aranges
                0x00000448       0x20 ../SynthesizerUnitTestV3_bsp/\libucosii_bsp.a(alt_release_fd.o)
 .debug_aranges
                0x00000468       0x20 ../SynthesizerUnitTestV3_bsp/\libucosii_bsp.a(alt_sbrk.o)
 .debug_aranges
                0x00000488       0x20 ../SynthesizerUnitTestV3_bsp/\libucosii_bsp.a(alt_write.o)
 .debug_aranges
                0x000004a8       0x20 ../SynthesizerUnitTestV3_bsp/\libucosii_bsp.a(alt_env_lock.o)
 .debug_aranges
                0x000004c8       0x20 ../SynthesizerUnitTestV3_bsp/\libucosii_bsp.a(alt_malloc_lock.o)
 .debug_aranges
                0x000004e8       0x20 ../SynthesizerUnitTestV3_bsp/\libucosii_bsp.a(os_core.o)
 .debug_aranges
                0x00000508       0x20 ../SynthesizerUnitTestV3_bsp/\libucosii_bsp.a(os_dbg.o)
 .debug_aranges
                0x00000528       0x20 ../SynthesizerUnitTestV3_bsp/\libucosii_bsp.a(os_flag.o)
 .debug_aranges
                0x00000548       0x20 ../SynthesizerUnitTestV3_bsp/\libucosii_bsp.a(os_mem.o)
 .debug_aranges
                0x00000568       0x20 ../SynthesizerUnitTestV3_bsp/\libucosii_bsp.a(os_q.o)
 .debug_aranges
                0x00000588       0x20 ../SynthesizerUnitTestV3_bsp/\libucosii_bsp.a(os_sem.o)
 .debug_aranges
                0x000005a8       0x20 ../SynthesizerUnitTestV3_bsp/\libucosii_bsp.a(os_task.o)
 .debug_aranges
                0x000005c8       0x20 ../SynthesizerUnitTestV3_bsp/\libucosii_bsp.a(os_time.o)
 .debug_aranges
                0x000005e8       0x20 ../SynthesizerUnitTestV3_bsp/\libucosii_bsp.a(alt_sys_init.o)
 .debug_aranges
                0x00000608       0x20 ../SynthesizerUnitTestV3_bsp/\libucosii_bsp.a(altera_avalon_fifo_util.o)
 .debug_aranges
                0x00000628       0x20 ../SynthesizerUnitTestV3_bsp/\libucosii_bsp.a(altera_avalon_jtag_uart_fd.o)
 .debug_aranges
                0x00000648       0x20 ../SynthesizerUnitTestV3_bsp/\libucosii_bsp.a(altera_avalon_jtag_uart_init.o)
 .debug_aranges
                0x00000668       0x20 ../SynthesizerUnitTestV3_bsp/\libucosii_bsp.a(altera_avalon_jtag_uart_ioctl.o)
 .debug_aranges
                0x00000688       0x20 ../SynthesizerUnitTestV3_bsp/\libucosii_bsp.a(altera_avalon_jtag_uart_read.o)
 .debug_aranges
                0x000006a8       0x20 ../SynthesizerUnitTestV3_bsp/\libucosii_bsp.a(altera_avalon_jtag_uart_write.o)
 .debug_aranges
                0x000006c8       0x20 ../SynthesizerUnitTestV3_bsp/\libucosii_bsp.a(altera_avalon_timer_sc.o)
 .debug_aranges
                0x000006e8       0x20 ../SynthesizerUnitTestV3_bsp/\libucosii_bsp.a(altera_up_avalon_audio.o)
 .debug_aranges
                0x00000708       0x20 ../SynthesizerUnitTestV3_bsp/\libucosii_bsp.a(altera_up_avalon_audio_and_video_config.o)
 .debug_aranges
                0x00000728       0x20 ../SynthesizerUnitTestV3_bsp/\libucosii_bsp.a(altera_up_avalon_character_lcd.o)
 .debug_aranges
                0x00000748       0x20 ../SynthesizerUnitTestV3_bsp/\libucosii_bsp.a(alt_alarm_start.o)
 .debug_aranges
                0x00000768       0x20 ../SynthesizerUnitTestV3_bsp/\libucosii_bsp.a(alt_dcache_flush_all.o)
 .debug_aranges
                0x00000788       0x20 ../SynthesizerUnitTestV3_bsp/\libucosii_bsp.a(alt_dev_llist_insert.o)
 .debug_aranges
                0x000007a8       0x20 ../SynthesizerUnitTestV3_bsp/\libucosii_bsp.a(alt_do_ctors.o)
 .debug_aranges
                0x000007c8       0x20 ../SynthesizerUnitTestV3_bsp/\libucosii_bsp.a(alt_do_dtors.o)
 .debug_aranges
                0x000007e8       0x20 ../SynthesizerUnitTestV3_bsp/\libucosii_bsp.a(alt_find_dev.o)
 .debug_aranges
                0x00000808       0x20 ../SynthesizerUnitTestV3_bsp/\libucosii_bsp.a(alt_icache_flush_all.o)
 .debug_aranges
                0x00000828       0x20 ../SynthesizerUnitTestV3_bsp/\libucosii_bsp.a(alt_io_redirect.o)
 .debug_aranges
                0x00000848       0x20 ../SynthesizerUnitTestV3_bsp/\libucosii_bsp.a(alt_irq_register.o)
 .debug_aranges
                0x00000868       0x20 ../SynthesizerUnitTestV3_bsp/\libucosii_bsp.a(alt_open.o)
 .debug_aranges
                0x00000888       0x20 ../SynthesizerUnitTestV3_bsp/\libucosii_bsp.a(alt_tick.o)
 .debug_aranges
                0x000008a8       0x20 ../SynthesizerUnitTestV3_bsp/\libucosii_bsp.a(altera_nios2_qsys_irq.o)
 .debug_aranges
                0x000008c8       0x20 ../SynthesizerUnitTestV3_bsp/\libucosii_bsp.a(os_cpu_a.o)
 .debug_aranges
                0x000008e8       0x20 ../SynthesizerUnitTestV3_bsp/\libucosii_bsp.a(os_cpu_c.o)
 .debug_aranges
                0x00000908       0x20 ../SynthesizerUnitTestV3_bsp/\libucosii_bsp.a(alt_find_file.o)
 .debug_aranges
                0x00000928       0x20 ../SynthesizerUnitTestV3_bsp/\libucosii_bsp.a(alt_get_fd.o)
 .debug_aranges
                0x00000948       0x20 ../SynthesizerUnitTestV3_bsp/\libucosii_bsp.a(alt_icache_flush.o)
 .debug_aranges
                0x00000968       0x30 ../SynthesizerUnitTestV3_bsp/\libucosii_bsp.a(alt_irq_entry.o)
 .debug_aranges
                0x00000998       0x28 ../SynthesizerUnitTestV3_bsp/\libucosii_bsp.a(alt_irq_handler.o)
 .debug_aranges
                0x000009c0       0x38 ../SynthesizerUnitTestV3_bsp/\libucosii_bsp.a(alt_exception_entry.o)
 .debug_aranges
                0x000009f8       0x20 c:/altera/12.1sp1/nios2eds/bin/gnu/h-i686-mingw32/bin/../lib/gcc/nios2-elf/4.1.2/../../../../nios2-elf/lib\libc.a(lib_a-atexit.o)
 .debug_aranges
                0x00000a18       0x20 c:/altera/12.1sp1/nios2eds/bin/gnu/h-i686-mingw32/bin/../lib/gcc/nios2-elf/4.1.2/../../../../nios2-elf/lib\libc.a(lib_a-exit.o)
 .debug_aranges
                0x00000a38       0x20 c:/altera/12.1sp1/nios2eds/bin/gnu/h-i686-mingw32/bin/../lib/gcc/nios2-elf/4.1.2/../../../../nios2-elf/lib\libc.a(lib_a-memcmp.o)
 .debug_aranges
                0x00000a58       0x20 c:/altera/12.1sp1/nios2eds/bin/gnu/h-i686-mingw32/bin/../lib/gcc/nios2-elf/4.1.2/../../../../nios2-elf/lib\libc.a(lib_a-__atexit.o)
 .debug_aranges
                0x00000a78       0x20 c:/altera/12.1sp1/nios2eds/bin/gnu/h-i686-mingw32/bin/../lib/gcc/nios2-elf/4.1.2/../../../../nios2-elf/lib\libc.a(lib_a-__call_atexit.o)
 .debug_aranges
                0x00000a98       0x20 c:/altera/12.1sp1/nios2eds/bin/gnu/h-i686-mingw32/bin/../lib/gcc/nios2-elf/4.1.2\libgcc.a(lib2-divmod.o)
 .debug_aranges
                0x00000ab8       0x20 ../SynthesizerUnitTestV3_bsp/\libucosii_bsp.a(alt_exit.o)

.debug_pubnames
                0x00000000     0x235b
 *(.debug_pubnames)
 .debug_pubnames
                0x00000000       0x4b obj/default/hello_ucosii.o
 .debug_pubnames
                0x0000004b       0x27 c:/altera/12.1sp1/nios2eds/bin/gnu/h-i686-mingw32/bin/../lib/gcc/nios2-elf/4.1.2/../../../../nios2-elf/lib\libc.a(lib_a-puts.o)
 .debug_pubnames
                0x00000072       0x1d c:/altera/12.1sp1/nios2eds/bin/gnu/h-i686-mingw32/bin/../lib/gcc/nios2-elf/4.1.2/../../../../nios2-elf/lib\libc.a(lib_a-strlen.o)
 .debug_pubnames
                0x0000008f       0x23 c:/altera/12.1sp1/nios2eds/bin/gnu/h-i686-mingw32/bin/../lib/gcc/nios2-elf/4.1.2/../../../../nios2-elf/lib\libc.a(lib_a-fvwrite.o)
 .debug_pubnames
                0x000000b2       0x39 c:/altera/12.1sp1/nios2eds/bin/gnu/h-i686-mingw32/bin/../lib/gcc/nios2-elf/4.1.2/../../../../nios2-elf/lib\libc.a(lib_a-impure.o)
 .debug_pubnames
                0x000000eb       0xce c:/altera/12.1sp1/nios2eds/bin/gnu/h-i686-mingw32/bin/../lib/gcc/nios2-elf/4.1.2/../../../../nios2-elf/lib\libc.a(lib_a-mallocr.o)
 .debug_pubnames
                0x000001b9       0x1d c:/altera/12.1sp1/nios2eds/bin/gnu/h-i686-mingw32/bin/../lib/gcc/nios2-elf/4.1.2/../../../../nios2-elf/lib\libc.a(lib_a-memchr.o)
 .debug_pubnames
                0x000001d6       0x1d c:/altera/12.1sp1/nios2eds/bin/gnu/h-i686-mingw32/bin/../lib/gcc/nios2-elf/4.1.2/../../../../nios2-elf/lib\libc.a(lib_a-memcpy.o)
 .debug_pubnames
                0x000001f3       0x1e c:/altera/12.1sp1/nios2eds/bin/gnu/h-i686-mingw32/bin/../lib/gcc/nios2-elf/4.1.2/../../../../nios2-elf/lib\libc.a(lib_a-memmove.o)
 .debug_pubnames
                0x00000211       0x21 c:/altera/12.1sp1/nios2eds/bin/gnu/h-i686-mingw32/bin/../lib/gcc/nios2-elf/4.1.2/../../../../nios2-elf/lib\libc.a(lib_a-reallocr.o)
 .debug_pubnames
                0x00000232       0x1e c:/altera/12.1sp1/nios2eds/bin/gnu/h-i686-mingw32/bin/../lib/gcc/nios2-elf/4.1.2/../../../../nios2-elf/lib\libc.a(lib_a-sbrkr.o)
 .debug_pubnames
                0x00000250       0x22 c:/altera/12.1sp1/nios2eds/bin/gnu/h-i686-mingw32/bin/../lib/gcc/nios2-elf/4.1.2/../../../../nios2-elf/lib\libc.a(lib_a-wsetup.o)
 .debug_pubnames
                0x00000272       0x2b c:/altera/12.1sp1/nios2eds/bin/gnu/h-i686-mingw32/bin/../lib/gcc/nios2-elf/4.1.2/../../../../nios2-elf/lib\libc.a(lib_a-fflush.o)
 .debug_pubnames
                0x0000029d       0xdb c:/altera/12.1sp1/nios2eds/bin/gnu/h-i686-mingw32/bin/../lib/gcc/nios2-elf/4.1.2/../../../../nios2-elf/lib\libc.a(lib_a-findfp.o)
 .debug_pubnames
                0x00000378       0x31 c:/altera/12.1sp1/nios2eds/bin/gnu/h-i686-mingw32/bin/../lib/gcc/nios2-elf/4.1.2/../../../../nios2-elf/lib\libc.a(lib_a-freer.o)
 .debug_pubnames
                0x000003a9       0x2e c:/altera/12.1sp1/nios2eds/bin/gnu/h-i686-mingw32/bin/../lib/gcc/nios2-elf/4.1.2/../../../../nios2-elf/lib\libc.a(lib_a-fwalk.o)
 .debug_pubnames
                0x000003d7       0x1c c:/altera/12.1sp1/nios2eds/bin/gnu/h-i686-mingw32/bin/../lib/gcc/nios2-elf/4.1.2/../../../../nios2-elf/lib\libc.a(lib_a-int_errno.o)
 .debug_pubnames
                0x000003f3       0x23 c:/altera/12.1sp1/nios2eds/bin/gnu/h-i686-mingw32/bin/../lib/gcc/nios2-elf/4.1.2/../../../../nios2-elf/lib\libc.a(lib_a-makebuf.o)
 .debug_pubnames
                0x00000416       0x1d c:/altera/12.1sp1/nios2eds/bin/gnu/h-i686-mingw32/bin/../lib/gcc/nios2-elf/4.1.2/../../../../nios2-elf/lib\libc.a(lib_a-memset.o)
 .debug_pubnames
                0x00000433       0x44 c:/altera/12.1sp1/nios2eds/bin/gnu/h-i686-mingw32/bin/../lib/gcc/nios2-elf/4.1.2/../../../../nios2-elf/lib\libc.a(lib_a-stdio.o)
 .debug_pubnames
                0x00000477       0x1f c:/altera/12.1sp1/nios2eds/bin/gnu/h-i686-mingw32/bin/../lib/gcc/nios2-elf/4.1.2/../../../../nios2-elf/lib\libc.a(lib_a-writer.o)
 .debug_pubnames
                0x00000496       0x1f c:/altera/12.1sp1/nios2eds/bin/gnu/h-i686-mingw32/bin/../lib/gcc/nios2-elf/4.1.2/../../../../nios2-elf/lib\libc.a(lib_a-closer.o)
 .debug_pubnames
                0x000004b5       0x2b c:/altera/12.1sp1/nios2eds/bin/gnu/h-i686-mingw32/bin/../lib/gcc/nios2-elf/4.1.2/../../../../nios2-elf/lib\libc.a(lib_a-fclose.o)
 .debug_pubnames
                0x000004e0       0x1f c:/altera/12.1sp1/nios2eds/bin/gnu/h-i686-mingw32/bin/../lib/gcc/nios2-elf/4.1.2/../../../../nios2-elf/lib\libc.a(lib_a-fstatr.o)
 .debug_pubnames
                0x000004ff       0x20 c:/altera/12.1sp1/nios2eds/bin/gnu/h-i686-mingw32/bin/../lib/gcc/nios2-elf/4.1.2/../../../../nios2-elf/lib\libc.a(lib_a-isattyr.o)
 .debug_pubnames
                0x0000051f       0x1f c:/altera/12.1sp1/nios2eds/bin/gnu/h-i686-mingw32/bin/../lib/gcc/nios2-elf/4.1.2/../../../../nios2-elf/lib\libc.a(lib_a-lseekr.o)
 .debug_pubnames
                0x0000053e       0x1e c:/altera/12.1sp1/nios2eds/bin/gnu/h-i686-mingw32/bin/../lib/gcc/nios2-elf/4.1.2/../../../../nios2-elf/lib\libc.a(lib_a-readr.o)
 .debug_pubnames
                0x0000055c       0x1c ../SynthesizerUnitTestV3_bsp/\libucosii_bsp.a(alt_close.o)
 .debug_pubnames
                0x00000578       0x78 ../SynthesizerUnitTestV3_bsp/\libucosii_bsp.a(alt_dev.o)
 .debug_pubnames
                0x000005f0       0x20 ../SynthesizerUnitTestV3_bsp/\libucosii_bsp.a(alt_errno.o)
 .debug_pubnames
                0x00000610       0x1c ../SynthesizerUnitTestV3_bsp/\libucosii_bsp.a(alt_fstat.o)
 .debug_pubnames
                0x0000062c       0x1d ../SynthesizerUnitTestV3_bsp/\libucosii_bsp.a(alt_isatty.o)
 .debug_pubnames
                0x00000649       0x1f ../SynthesizerUnitTestV3_bsp/\libucosii_bsp.a(alt_load.o)
 .debug_pubnames
                0x00000668       0x1c ../SynthesizerUnitTestV3_bsp/\libucosii_bsp.a(alt_lseek.o)
 .debug_pubnames
                0x00000684       0x46 ../SynthesizerUnitTestV3_bsp/\libucosii_bsp.a(alt_main.o)
 .debug_pubnames
                0x000006ca       0x1b ../SynthesizerUnitTestV3_bsp/\libucosii_bsp.a(alt_read.o)
 .debug_pubnames
                0x000006e5       0x25 ../SynthesizerUnitTestV3_bsp/\libucosii_bsp.a(alt_release_fd.o)
 .debug_pubnames
                0x0000070a       0x1b ../SynthesizerUnitTestV3_bsp/\libucosii_bsp.a(alt_sbrk.o)
 .debug_pubnames
                0x00000725       0x1c ../SynthesizerUnitTestV3_bsp/\libucosii_bsp.a(alt_write.o)
 .debug_pubnames
                0x00000741       0x41 ../SynthesizerUnitTestV3_bsp/\libucosii_bsp.a(alt_env_lock.o)
 .debug_pubnames
                0x00000782       0x48 ../SynthesizerUnitTestV3_bsp/\libucosii_bsp.a(alt_malloc_lock.o)
 .debug_pubnames
                0x000007ca      0x3f8 ../SynthesizerUnitTestV3_bsp/\libucosii_bsp.a(os_core.o)
 .debug_pubnames
                0x00000bc2      0x3c5 ../SynthesizerUnitTestV3_bsp/\libucosii_bsp.a(os_dbg.o)
 .debug_pubnames
                0x00000f87       0xd0 ../SynthesizerUnitTestV3_bsp/\libucosii_bsp.a(os_flag.o)
 .debug_pubnames
                0x00001057       0x7c ../SynthesizerUnitTestV3_bsp/\libucosii_bsp.a(os_mem.o)
 .debug_pubnames
                0x000010d3       0xa9 ../SynthesizerUnitTestV3_bsp/\libucosii_bsp.a(os_q.o)
 .debug_pubnames
                0x0000117c       0x8a ../SynthesizerUnitTestV3_bsp/\libucosii_bsp.a(os_sem.o)
 .debug_pubnames
                0x00001206       0xe5 ../SynthesizerUnitTestV3_bsp/\libucosii_bsp.a(os_task.o)
 .debug_pubnames
                0x000012eb       0x62 ../SynthesizerUnitTestV3_bsp/\libucosii_bsp.a(os_time.o)
 .debug_pubnames
                0x0000134d       0x34 ../SynthesizerUnitTestV3_bsp/\libucosii_bsp.a(alt_sys_init.o)
 .debug_pubnames
                0x00001381      0x278 ../SynthesizerUnitTestV3_bsp/\libucosii_bsp.a(altera_avalon_fifo_util.o)
 .debug_pubnames
                0x000015f9       0xa5 ../SynthesizerUnitTestV3_bsp/\libucosii_bsp.a(altera_avalon_jtag_uart_fd.o)
 .debug_pubnames
                0x0000169e       0x55 ../SynthesizerUnitTestV3_bsp/\libucosii_bsp.a(altera_avalon_jtag_uart_init.o)
 .debug_pubnames
                0x000016f3       0x34 ../SynthesizerUnitTestV3_bsp/\libucosii_bsp.a(altera_avalon_jtag_uart_ioctl.o)
 .debug_pubnames
                0x00001727       0x33 ../SynthesizerUnitTestV3_bsp/\libucosii_bsp.a(altera_avalon_jtag_uart_read.o)
 .debug_pubnames
                0x0000175a       0x34 ../SynthesizerUnitTestV3_bsp/\libucosii_bsp.a(altera_avalon_jtag_uart_write.o)
 .debug_pubnames
                0x0000178e       0x2f ../SynthesizerUnitTestV3_bsp/\libucosii_bsp.a(altera_avalon_timer_sc.o)
 .debug_pubnames
                0x000017bd      0x25e ../SynthesizerUnitTestV3_bsp/\libucosii_bsp.a(altera_up_avalon_audio.o)
 .debug_pubnames
                0x00001a1b      0x2ab ../SynthesizerUnitTestV3_bsp/\libucosii_bsp.a(altera_up_avalon_audio_and_video_config.o)
 .debug_pubnames
                0x00001cc6      0x1cd ../SynthesizerUnitTestV3_bsp/\libucosii_bsp.a(altera_up_avalon_character_lcd.o)
 .debug_pubnames
                0x00001e93       0x26 ../SynthesizerUnitTestV3_bsp/\libucosii_bsp.a(alt_alarm_start.o)
 .debug_pubnames
                0x00001eb9       0x2b ../SynthesizerUnitTestV3_bsp/\libucosii_bsp.a(alt_dcache_flush_all.o)
 .debug_pubnames
                0x00001ee4       0x2b ../SynthesizerUnitTestV3_bsp/\libucosii_bsp.a(alt_dev_llist_insert.o)
 .debug_pubnames
                0x00001f0f       0x20 ../SynthesizerUnitTestV3_bsp/\libucosii_bsp.a(alt_do_ctors.o)
 .debug_pubnames
                0x00001f2f       0x20 ../SynthesizerUnitTestV3_bsp/\libucosii_bsp.a(alt_do_dtors.o)
 .debug_pubnames
                0x00001f4f       0x23 ../SynthesizerUnitTestV3_bsp/\libucosii_bsp.a(alt_find_dev.o)
 .debug_pubnames
                0x00001f72       0x2b ../SynthesizerUnitTestV3_bsp/\libucosii_bsp.a(alt_icache_flush_all.o)
 .debug_pubnames
                0x00001f9d       0x26 ../SynthesizerUnitTestV3_bsp/\libucosii_bsp.a(alt_io_redirect.o)
 .debug_pubnames
                0x00001fc3       0x27 ../SynthesizerUnitTestV3_bsp/\libucosii_bsp.a(alt_irq_register.o)
 .debug_pubnames
                0x00001fea       0x3b ../SynthesizerUnitTestV3_bsp/\libucosii_bsp.a(alt_irq_vars.o)
 .debug_pubnames
                0x00002025       0x1b ../SynthesizerUnitTestV3_bsp/\libucosii_bsp.a(alt_open.o)
 .debug_pubnames
                0x00002040       0x68 ../SynthesizerUnitTestV3_bsp/\libucosii_bsp.a(alt_tick.o)
 .debug_pubnames
                0x000020a8       0x31 ../SynthesizerUnitTestV3_bsp/\libucosii_bsp.a(altera_nios2_qsys_irq.o)
 .debug_pubnames
                0x000020d9       0xcd ../SynthesizerUnitTestV3_bsp/\libucosii_bsp.a(os_cpu_c.o)
 .debug_pubnames
                0x000021a6       0x24 ../SynthesizerUnitTestV3_bsp/\libucosii_bsp.a(alt_find_file.o)
 .debug_pubnames
                0x000021ca       0x21 ../SynthesizerUnitTestV3_bsp/\libucosii_bsp.a(alt_get_fd.o)
 .debug_pubnames
                0x000021eb       0x27 ../SynthesizerUnitTestV3_bsp/\libucosii_bsp.a(alt_icache_flush.o)
 .debug_pubnames
                0x00002212       0x32 ../SynthesizerUnitTestV3_bsp/\libucosii_bsp.a(alt_irq_handler.o)
 .debug_pubnames
                0x00002244       0x2a c:/altera/12.1sp1/nios2eds/bin/gnu/h-i686-mingw32/bin/../lib/gcc/nios2-elf/4.1.2/../../../../nios2-elf/lib\libc.a(lib_a-atexit.o)
 .debug_pubnames
                0x0000226e       0x1b c:/altera/12.1sp1/nios2eds/bin/gnu/h-i686-mingw32/bin/../lib/gcc/nios2-elf/4.1.2/../../../../nios2-elf/lib\libc.a(lib_a-exit.o)
 .debug_pubnames
                0x00002289       0x1d c:/altera/12.1sp1/nios2eds/bin/gnu/h-i686-mingw32/bin/../lib/gcc/nios2-elf/4.1.2/../../../../nios2-elf/lib\libc.a(lib_a-memcmp.o)
 .debug_pubnames
                0x000022a6       0x2a c:/altera/12.1sp1/nios2eds/bin/gnu/h-i686-mingw32/bin/../lib/gcc/nios2-elf/4.1.2/../../../../nios2-elf/lib\libc.a(lib_a-__atexit.o)
 .debug_pubnames
                0x000022d0       0x27 c:/altera/12.1sp1/nios2eds/bin/gnu/h-i686-mingw32/bin/../lib/gcc/nios2-elf/4.1.2/../../../../nios2-elf/lib\libc.a(lib_a-__call_atexit.o)
 .debug_pubnames
                0x000022f7       0x48 c:/altera/12.1sp1/nios2eds/bin/gnu/h-i686-mingw32/bin/../lib/gcc/nios2-elf/4.1.2\libgcc.a(lib2-divmod.o)
 .debug_pubnames
                0x0000233f       0x1c ../SynthesizerUnitTestV3_bsp/\libucosii_bsp.a(alt_exit.o)

.debug_info     0x00000000    0x293de
 *(.debug_info .gnu.linkonce.wi.*)
 .debug_info    0x00000000       0x72 ../SynthesizerUnitTestV3_bsp//obj/HAL/src/crt0.o
 .debug_info    0x00000072      0x73d obj/default/hello_ucosii.o
 .debug_info    0x000007af      0xa25 c:/altera/12.1sp1/nios2eds/bin/gnu/h-i686-mingw32/bin/../lib/gcc/nios2-elf/4.1.2/../../../../nios2-elf/lib\libc.a(lib_a-puts.o)
 .debug_info    0x000011d4       0xdb c:/altera/12.1sp1/nios2eds/bin/gnu/h-i686-mingw32/bin/../lib/gcc/nios2-elf/4.1.2/../../../../nios2-elf/lib\libc.a(lib_a-strlen.o)
 .debug_info    0x000012af      0xa88 c:/altera/12.1sp1/nios2eds/bin/gnu/h-i686-mingw32/bin/../lib/gcc/nios2-elf/4.1.2/../../../../nios2-elf/lib\libc.a(lib_a-fvwrite.o)
 .debug_info    0x00001d37      0x93d c:/altera/12.1sp1/nios2eds/bin/gnu/h-i686-mingw32/bin/../lib/gcc/nios2-elf/4.1.2/../../../../nios2-elf/lib\libc.a(lib_a-impure.o)
 .debug_info    0x00002674      0xcd0 c:/altera/12.1sp1/nios2eds/bin/gnu/h-i686-mingw32/bin/../lib/gcc/nios2-elf/4.1.2/../../../../nios2-elf/lib\libc.a(lib_a-mallocr.o)
 .debug_info    0x00003344      0x138 c:/altera/12.1sp1/nios2eds/bin/gnu/h-i686-mingw32/bin/../lib/gcc/nios2-elf/4.1.2/../../../../nios2-elf/lib\libc.a(lib_a-memchr.o)
 .debug_info    0x0000347c      0x106 c:/altera/12.1sp1/nios2eds/bin/gnu/h-i686-mingw32/bin/../lib/gcc/nios2-elf/4.1.2/../../../../nios2-elf/lib\libc.a(lib_a-memcpy.o)
 .debug_info    0x00003582      0x13e c:/altera/12.1sp1/nios2eds/bin/gnu/h-i686-mingw32/bin/../lib/gcc/nios2-elf/4.1.2/../../../../nios2-elf/lib\libc.a(lib_a-memmove.o)
 .debug_info    0x000036c0      0xbd7 c:/altera/12.1sp1/nios2eds/bin/gnu/h-i686-mingw32/bin/../lib/gcc/nios2-elf/4.1.2/../../../../nios2-elf/lib\libc.a(lib_a-reallocr.o)
 .debug_info    0x00004297      0x962 c:/altera/12.1sp1/nios2eds/bin/gnu/h-i686-mingw32/bin/../lib/gcc/nios2-elf/4.1.2/../../../../nios2-elf/lib\libc.a(lib_a-sbrkr.o)
 .debug_info    0x00004bf9      0x95d c:/altera/12.1sp1/nios2eds/bin/gnu/h-i686-mingw32/bin/../lib/gcc/nios2-elf/4.1.2/../../../../nios2-elf/lib\libc.a(lib_a-wsetup.o)
 .debug_info    0x00005556      0x9fe c:/altera/12.1sp1/nios2eds/bin/gnu/h-i686-mingw32/bin/../lib/gcc/nios2-elf/4.1.2/../../../../nios2-elf/lib\libc.a(lib_a-fflush.o)
 .debug_info    0x00005f54      0xb72 c:/altera/12.1sp1/nios2eds/bin/gnu/h-i686-mingw32/bin/../lib/gcc/nios2-elf/4.1.2/../../../../nios2-elf/lib\libc.a(lib_a-findfp.o)
 .debug_info    0x00006ac6      0xbc9 c:/altera/12.1sp1/nios2eds/bin/gnu/h-i686-mingw32/bin/../lib/gcc/nios2-elf/4.1.2/../../../../nios2-elf/lib\libc.a(lib_a-freer.o)
 .debug_info    0x0000768f      0xaed c:/altera/12.1sp1/nios2eds/bin/gnu/h-i686-mingw32/bin/../lib/gcc/nios2-elf/4.1.2/../../../../nios2-elf/lib\libc.a(lib_a-fwalk.o)
 .debug_info    0x0000817c       0x8c c:/altera/12.1sp1/nios2eds/bin/gnu/h-i686-mingw32/bin/../lib/gcc/nios2-elf/4.1.2/../../../../nios2-elf/lib\libc.a(lib_a-int_errno.o)
 .debug_info    0x00008208      0xb1a c:/altera/12.1sp1/nios2eds/bin/gnu/h-i686-mingw32/bin/../lib/gcc/nios2-elf/4.1.2/../../../../nios2-elf/lib\libc.a(lib_a-makebuf.o)
 .debug_info    0x00008d22      0x113 c:/altera/12.1sp1/nios2eds/bin/gnu/h-i686-mingw32/bin/../lib/gcc/nios2-elf/4.1.2/../../../../nios2-elf/lib\libc.a(lib_a-memset.o)
 .debug_info    0x00008e35      0xaac c:/altera/12.1sp1/nios2eds/bin/gnu/h-i686-mingw32/bin/../lib/gcc/nios2-elf/4.1.2/../../../../nios2-elf/lib\libc.a(lib_a-stdio.o)
 .debug_info    0x000098e1      0x993 c:/altera/12.1sp1/nios2eds/bin/gnu/h-i686-mingw32/bin/../lib/gcc/nios2-elf/4.1.2/../../../../nios2-elf/lib\libc.a(lib_a-writer.o)
 .debug_info    0x0000a274      0x958 c:/altera/12.1sp1/nios2eds/bin/gnu/h-i686-mingw32/bin/../lib/gcc/nios2-elf/4.1.2/../../../../nios2-elf/lib\libc.a(lib_a-closer.o)
 .debug_info    0x0000abcc      0x994 c:/altera/12.1sp1/nios2eds/bin/gnu/h-i686-mingw32/bin/../lib/gcc/nios2-elf/4.1.2/../../../../nios2-elf/lib\libc.a(lib_a-fclose.o)
 .debug_info    0x0000b560      0xafc c:/altera/12.1sp1/nios2eds/bin/gnu/h-i686-mingw32/bin/../lib/gcc/nios2-elf/4.1.2/../../../../nios2-elf/lib\libc.a(lib_a-fstatr.o)
 .debug_info    0x0000c05c      0x958 c:/altera/12.1sp1/nios2eds/bin/gnu/h-i686-mingw32/bin/../lib/gcc/nios2-elf/4.1.2/../../../../nios2-elf/lib\libc.a(lib_a-isattyr.o)
 .debug_info    0x0000c9b4      0x981 c:/altera/12.1sp1/nios2eds/bin/gnu/h-i686-mingw32/bin/../lib/gcc/nios2-elf/4.1.2/../../../../nios2-elf/lib\libc.a(lib_a-lseekr.o)
 .debug_info    0x0000d335      0x98c c:/altera/12.1sp1/nios2eds/bin/gnu/h-i686-mingw32/bin/../lib/gcc/nios2-elf/4.1.2/../../../../nios2-elf/lib\libc.a(lib_a-readr.o)
 .debug_info    0x0000dcc1      0x4e5 ../SynthesizerUnitTestV3_bsp/\libucosii_bsp.a(alt_close.o)
 .debug_info    0x0000e1a6      0x807 ../SynthesizerUnitTestV3_bsp/\libucosii_bsp.a(alt_dev.o)
 .debug_info    0x0000e9ad      0x15b ../SynthesizerUnitTestV3_bsp/\libucosii_bsp.a(alt_errno.o)
 .debug_info    0x0000eb08      0x6de ../SynthesizerUnitTestV3_bsp/\libucosii_bsp.a(alt_fstat.o)
 .debug_info    0x0000f1e6      0x6e4 ../SynthesizerUnitTestV3_bsp/\libucosii_bsp.a(alt_isatty.o)
 .debug_info    0x0000f8ca      0x284 ../SynthesizerUnitTestV3_bsp/\libucosii_bsp.a(alt_load.o)
 .debug_info    0x0000fb4e      0x518 ../SynthesizerUnitTestV3_bsp/\libucosii_bsp.a(alt_lseek.o)
 .debug_info    0x00010066      0x407 ../SynthesizerUnitTestV3_bsp/\libucosii_bsp.a(alt_main.o)
 .debug_info    0x0001046d      0x708 ../SynthesizerUnitTestV3_bsp/\libucosii_bsp.a(alt_read.o)
 .debug_info    0x00010b75      0x479 ../SynthesizerUnitTestV3_bsp/\libucosii_bsp.a(alt_release_fd.o)
 .debug_info    0x00010fee      0x2f5 ../SynthesizerUnitTestV3_bsp/\libucosii_bsp.a(alt_sbrk.o)
 .debug_info    0x000112e3      0x711 ../SynthesizerUnitTestV3_bsp/\libucosii_bsp.a(alt_write.o)
 .debug_info    0x000119f4     0x11fd ../SynthesizerUnitTestV3_bsp/\libucosii_bsp.a(alt_env_lock.o)
 .debug_info    0x00012bf1     0x1359 ../SynthesizerUnitTestV3_bsp/\libucosii_bsp.a(alt_malloc_lock.o)
 .debug_info    0x00013f4a     0x1c13 ../SynthesizerUnitTestV3_bsp/\libucosii_bsp.a(os_core.o)
 .debug_info    0x00015b5d     0x1158 ../SynthesizerUnitTestV3_bsp/\libucosii_bsp.a(os_dbg.o)
 .debug_info    0x00016cb5     0x126e ../SynthesizerUnitTestV3_bsp/\libucosii_bsp.a(os_flag.o)
 .debug_info    0x00017f23      0x838 ../SynthesizerUnitTestV3_bsp/\libucosii_bsp.a(os_mem.o)
 .debug_info    0x0001875b     0x10a8 ../SynthesizerUnitTestV3_bsp/\libucosii_bsp.a(os_q.o)
 .debug_info    0x00019803      0xd10 ../SynthesizerUnitTestV3_bsp/\libucosii_bsp.a(os_sem.o)
 .debug_info    0x0001a513     0x1386 ../SynthesizerUnitTestV3_bsp/\libucosii_bsp.a(os_task.o)
 .debug_info    0x0001b899      0xa0a ../SynthesizerUnitTestV3_bsp/\libucosii_bsp.a(os_time.o)
 .debug_info    0x0001c2a3      0xb2d ../SynthesizerUnitTestV3_bsp/\libucosii_bsp.a(alt_sys_init.o)
 .debug_info    0x0001cdd0      0x75d ../SynthesizerUnitTestV3_bsp/\libucosii_bsp.a(altera_avalon_fifo_util.o)
 .debug_info    0x0001d52d      0x9fc ../SynthesizerUnitTestV3_bsp/\libucosii_bsp.a(altera_avalon_jtag_uart_fd.o)
 .debug_info    0x0001df29      0x987 ../SynthesizerUnitTestV3_bsp/\libucosii_bsp.a(altera_avalon_jtag_uart_init.o)
 .debug_info    0x0001e8b0      0x666 ../SynthesizerUnitTestV3_bsp/\libucosii_bsp.a(altera_avalon_jtag_uart_ioctl.o)
 .debug_info    0x0001ef16      0x822 ../SynthesizerUnitTestV3_bsp/\libucosii_bsp.a(altera_avalon_jtag_uart_read.o)
 .debug_info    0x0001f738      0x819 ../SynthesizerUnitTestV3_bsp/\libucosii_bsp.a(altera_avalon_jtag_uart_write.o)
 .debug_info    0x0001ff51      0x3c2 ../SynthesizerUnitTestV3_bsp/\libucosii_bsp.a(altera_avalon_timer_sc.o)
 .debug_info    0x00020313      0xb52 ../SynthesizerUnitTestV3_bsp/\libucosii_bsp.a(altera_up_avalon_audio.o)
 .debug_info    0x00020e65      0xc34 ../SynthesizerUnitTestV3_bsp/\libucosii_bsp.a(altera_up_avalon_audio_and_video_config.o)
 .debug_info    0x00021a99      0x926 ../SynthesizerUnitTestV3_bsp/\libucosii_bsp.a(altera_up_avalon_character_lcd.o)
 .debug_info    0x000223bf      0x46c ../SynthesizerUnitTestV3_bsp/\libucosii_bsp.a(alt_alarm_start.o)
 .debug_info    0x0002282b      0x166 ../SynthesizerUnitTestV3_bsp/\libucosii_bsp.a(alt_dcache_flush_all.o)
 .debug_info    0x00022991      0x2ae ../SynthesizerUnitTestV3_bsp/\libucosii_bsp.a(alt_dev_llist_insert.o)
 .debug_info    0x00022c3f      0x106 ../SynthesizerUnitTestV3_bsp/\libucosii_bsp.a(alt_do_ctors.o)
 .debug_info    0x00022d45      0x105 ../SynthesizerUnitTestV3_bsp/\libucosii_bsp.a(alt_do_dtors.o)
 .debug_info    0x00022e4a      0x496 ../SynthesizerUnitTestV3_bsp/\libucosii_bsp.a(alt_find_dev.o)
 .debug_info    0x000232e0      0x153 ../SynthesizerUnitTestV3_bsp/\libucosii_bsp.a(alt_icache_flush_all.o)
 .debug_info    0x00023433      0x713 ../SynthesizerUnitTestV3_bsp/\libucosii_bsp.a(alt_io_redirect.o)
 .debug_info    0x00023b46      0x466 ../SynthesizerUnitTestV3_bsp/\libucosii_bsp.a(alt_irq_register.o)
 .debug_info    0x00023fac      0x15e ../SynthesizerUnitTestV3_bsp/\libucosii_bsp.a(alt_irq_vars.o)
 .debug_info    0x0002410a      0x594 ../SynthesizerUnitTestV3_bsp/\libucosii_bsp.a(alt_open.o)
 .debug_info    0x0002469e      0x43b ../SynthesizerUnitTestV3_bsp/\libucosii_bsp.a(alt_tick.o)
 .debug_info    0x00024ad9      0x1a1 ../SynthesizerUnitTestV3_bsp/\libucosii_bsp.a(altera_nios2_qsys_irq.o)
 .debug_info    0x00024c7a       0x7a ../SynthesizerUnitTestV3_bsp/\libucosii_bsp.a(os_cpu_a.o)
 .debug_info    0x00024cf4     0x12fd ../SynthesizerUnitTestV3_bsp/\libucosii_bsp.a(os_cpu_c.o)
 .debug_info    0x00025ff1      0x49d ../SynthesizerUnitTestV3_bsp/\libucosii_bsp.a(alt_find_file.o)
 .debug_info    0x0002648e      0x62f ../SynthesizerUnitTestV3_bsp/\libucosii_bsp.a(alt_get_fd.o)
 .debug_info    0x00026abd      0x19b ../SynthesizerUnitTestV3_bsp/\libucosii_bsp.a(alt_icache_flush.o)
 .debug_info    0x00026c58       0x7b ../SynthesizerUnitTestV3_bsp/\libucosii_bsp.a(alt_irq_entry.o)
 .debug_info    0x00026cd3      0x2e9 ../SynthesizerUnitTestV3_bsp/\libucosii_bsp.a(alt_irq_handler.o)
 .debug_info    0x00026fbc       0x81 ../SynthesizerUnitTestV3_bsp/\libucosii_bsp.a(alt_exception_entry.o)
 .debug_info    0x0002703d      0x181 c:/altera/12.1sp1/nios2eds/bin/gnu/h-i686-mingw32/bin/../lib/gcc/nios2-elf/4.1.2/../../../../nios2-elf/lib\libc.a(lib_a-atexit.o)
 .debug_info    0x000271be      0x93f c:/altera/12.1sp1/nios2eds/bin/gnu/h-i686-mingw32/bin/../lib/gcc/nios2-elf/4.1.2/../../../../nios2-elf/lib\libc.a(lib_a-exit.o)
 .debug_info    0x00027afd      0x115 c:/altera/12.1sp1/nios2eds/bin/gnu/h-i686-mingw32/bin/../lib/gcc/nios2-elf/4.1.2/../../../../nios2-elf/lib\libc.a(lib_a-memcmp.o)
 .debug_info    0x00027c12      0x99c c:/altera/12.1sp1/nios2eds/bin/gnu/h-i686-mingw32/bin/../lib/gcc/nios2-elf/4.1.2/../../../../nios2-elf/lib\libc.a(lib_a-__atexit.o)
 .debug_info    0x000285ae      0x9e2 c:/altera/12.1sp1/nios2eds/bin/gnu/h-i686-mingw32/bin/../lib/gcc/nios2-elf/4.1.2/../../../../nios2-elf/lib\libc.a(lib_a-__call_atexit.o)
 .debug_info    0x00028f90      0x21c c:/altera/12.1sp1/nios2eds/bin/gnu/h-i686-mingw32/bin/../lib/gcc/nios2-elf/4.1.2\libgcc.a(lib2-divmod.o)
 .debug_info    0x000291ac      0x232 ../SynthesizerUnitTestV3_bsp/\libucosii_bsp.a(alt_exit.o)

.debug_abbrev   0x00000000     0x6d0f
 *(.debug_abbrev)
 .debug_abbrev  0x00000000       0x12 ../SynthesizerUnitTestV3_bsp//obj/HAL/src/crt0.o
 .debug_abbrev  0x00000012      0x149 obj/default/hello_ucosii.o
 .debug_abbrev  0x0000015b      0x1ac c:/altera/12.1sp1/nios2eds/bin/gnu/h-i686-mingw32/bin/../lib/gcc/nios2-elf/4.1.2/../../../../nios2-elf/lib\libc.a(lib_a-puts.o)
 .debug_abbrev  0x00000307       0x8b c:/altera/12.1sp1/nios2eds/bin/gnu/h-i686-mingw32/bin/../lib/gcc/nios2-elf/4.1.2/../../../../nios2-elf/lib\libc.a(lib_a-strlen.o)
 .debug_abbrev  0x00000392      0x1a3 c:/altera/12.1sp1/nios2eds/bin/gnu/h-i686-mingw32/bin/../lib/gcc/nios2-elf/4.1.2/../../../../nios2-elf/lib\libc.a(lib_a-fvwrite.o)
 .debug_abbrev  0x00000535      0x157 c:/altera/12.1sp1/nios2eds/bin/gnu/h-i686-mingw32/bin/../lib/gcc/nios2-elf/4.1.2/../../../../nios2-elf/lib\libc.a(lib_a-impure.o)
 .debug_abbrev  0x0000068c      0x216 c:/altera/12.1sp1/nios2eds/bin/gnu/h-i686-mingw32/bin/../lib/gcc/nios2-elf/4.1.2/../../../../nios2-elf/lib\libc.a(lib_a-mallocr.o)
 .debug_abbrev  0x000008a2       0xb5 c:/altera/12.1sp1/nios2eds/bin/gnu/h-i686-mingw32/bin/../lib/gcc/nios2-elf/4.1.2/../../../../nios2-elf/lib\libc.a(lib_a-memchr.o)
 .debug_abbrev  0x00000957       0xb5 c:/altera/12.1sp1/nios2eds/bin/gnu/h-i686-mingw32/bin/../lib/gcc/nios2-elf/4.1.2/../../../../nios2-elf/lib\libc.a(lib_a-memcpy.o)
 .debug_abbrev  0x00000a0c       0xb5 c:/altera/12.1sp1/nios2eds/bin/gnu/h-i686-mingw32/bin/../lib/gcc/nios2-elf/4.1.2/../../../../nios2-elf/lib\libc.a(lib_a-memmove.o)
 .debug_abbrev  0x00000ac1      0x1c3 c:/altera/12.1sp1/nios2eds/bin/gnu/h-i686-mingw32/bin/../lib/gcc/nios2-elf/4.1.2/../../../../nios2-elf/lib\libc.a(lib_a-reallocr.o)
 .debug_abbrev  0x00000c84      0x18c c:/altera/12.1sp1/nios2eds/bin/gnu/h-i686-mingw32/bin/../lib/gcc/nios2-elf/4.1.2/../../../../nios2-elf/lib\libc.a(lib_a-sbrkr.o)
 .debug_abbrev  0x00000e10      0x170 c:/altera/12.1sp1/nios2eds/bin/gnu/h-i686-mingw32/bin/../lib/gcc/nios2-elf/4.1.2/../../../../nios2-elf/lib\libc.a(lib_a-wsetup.o)
 .debug_abbrev  0x00000f80      0x1c6 c:/altera/12.1sp1/nios2eds/bin/gnu/h-i686-mingw32/bin/../lib/gcc/nios2-elf/4.1.2/../../../../nios2-elf/lib\libc.a(lib_a-fflush.o)
 .debug_abbrev  0x00001146      0x24c c:/altera/12.1sp1/nios2eds/bin/gnu/h-i686-mingw32/bin/../lib/gcc/nios2-elf/4.1.2/../../../../nios2-elf/lib\libc.a(lib_a-findfp.o)
 .debug_abbrev  0x00001392      0x1d9 c:/altera/12.1sp1/nios2eds/bin/gnu/h-i686-mingw32/bin/../lib/gcc/nios2-elf/4.1.2/../../../../nios2-elf/lib\libc.a(lib_a-freer.o)
 .debug_abbrev  0x0000156b      0x1e3 c:/altera/12.1sp1/nios2eds/bin/gnu/h-i686-mingw32/bin/../lib/gcc/nios2-elf/4.1.2/../../../../nios2-elf/lib\libc.a(lib_a-fwalk.o)
 .debug_abbrev  0x0000174e       0x3b c:/altera/12.1sp1/nios2eds/bin/gnu/h-i686-mingw32/bin/../lib/gcc/nios2-elf/4.1.2/../../../../nios2-elf/lib\libc.a(lib_a-int_errno.o)
 .debug_abbrev  0x00001789      0x197 c:/altera/12.1sp1/nios2eds/bin/gnu/h-i686-mingw32/bin/../lib/gcc/nios2-elf/4.1.2/../../../../nios2-elf/lib\libc.a(lib_a-makebuf.o)
 .debug_abbrev  0x00001920       0xb8 c:/altera/12.1sp1/nios2eds/bin/gnu/h-i686-mingw32/bin/../lib/gcc/nios2-elf/4.1.2/../../../../nios2-elf/lib\libc.a(lib_a-memset.o)
 .debug_abbrev  0x000019d8      0x1c9 c:/altera/12.1sp1/nios2eds/bin/gnu/h-i686-mingw32/bin/../lib/gcc/nios2-elf/4.1.2/../../../../nios2-elf/lib\libc.a(lib_a-stdio.o)
 .debug_abbrev  0x00001ba1      0x184 c:/altera/12.1sp1/nios2eds/bin/gnu/h-i686-mingw32/bin/../lib/gcc/nios2-elf/4.1.2/../../../../nios2-elf/lib\libc.a(lib_a-writer.o)
 .debug_abbrev  0x00001d25      0x17f c:/altera/12.1sp1/nios2eds/bin/gnu/h-i686-mingw32/bin/../lib/gcc/nios2-elf/4.1.2/../../../../nios2-elf/lib\libc.a(lib_a-closer.o)
 .debug_abbrev  0x00001ea4      0x1a7 c:/altera/12.1sp1/nios2eds/bin/gnu/h-i686-mingw32/bin/../lib/gcc/nios2-elf/4.1.2/../../../../nios2-elf/lib\libc.a(lib_a-fclose.o)
 .debug_abbrev  0x0000204b      0x18e c:/altera/12.1sp1/nios2eds/bin/gnu/h-i686-mingw32/bin/../lib/gcc/nios2-elf/4.1.2/../../../../nios2-elf/lib\libc.a(lib_a-fstatr.o)
 .debug_abbrev  0x000021d9      0x17f c:/altera/12.1sp1/nios2eds/bin/gnu/h-i686-mingw32/bin/../lib/gcc/nios2-elf/4.1.2/../../../../nios2-elf/lib\libc.a(lib_a-isattyr.o)
 .debug_abbrev  0x00002358      0x18e c:/altera/12.1sp1/nios2eds/bin/gnu/h-i686-mingw32/bin/../lib/gcc/nios2-elf/4.1.2/../../../../nios2-elf/lib\libc.a(lib_a-lseekr.o)
 .debug_abbrev  0x000024e6      0x17f c:/altera/12.1sp1/nios2eds/bin/gnu/h-i686-mingw32/bin/../lib/gcc/nios2-elf/4.1.2/../../../../nios2-elf/lib\libc.a(lib_a-readr.o)
 .debug_abbrev  0x00002665      0x102 ../SynthesizerUnitTestV3_bsp/\libucosii_bsp.a(alt_close.o)
 .debug_abbrev  0x00002767      0x10a ../SynthesizerUnitTestV3_bsp/\libucosii_bsp.a(alt_dev.o)
 .debug_abbrev  0x00002871       0x5e ../SynthesizerUnitTestV3_bsp/\libucosii_bsp.a(alt_errno.o)
 .debug_abbrev  0x000028cf      0x102 ../SynthesizerUnitTestV3_bsp/\libucosii_bsp.a(alt_fstat.o)
 .debug_abbrev  0x000029d1      0x102 ../SynthesizerUnitTestV3_bsp/\libucosii_bsp.a(alt_isatty.o)
 .debug_abbrev  0x00002ad3       0x88 ../SynthesizerUnitTestV3_bsp/\libucosii_bsp.a(alt_load.o)
 .debug_abbrev  0x00002b5b      0x102 ../SynthesizerUnitTestV3_bsp/\libucosii_bsp.a(alt_lseek.o)
 .debug_abbrev  0x00002c5d      0x120 ../SynthesizerUnitTestV3_bsp/\libucosii_bsp.a(alt_main.o)
 .debug_abbrev  0x00002d7d      0x102 ../SynthesizerUnitTestV3_bsp/\libucosii_bsp.a(alt_read.o)
 .debug_abbrev  0x00002e7f       0xd3 ../SynthesizerUnitTestV3_bsp/\libucosii_bsp.a(alt_release_fd.o)
 .debug_abbrev  0x00002f52      0x11c ../SynthesizerUnitTestV3_bsp/\libucosii_bsp.a(alt_sbrk.o)
 .debug_abbrev  0x0000306e      0x107 ../SynthesizerUnitTestV3_bsp/\libucosii_bsp.a(alt_write.o)
 .debug_abbrev  0x00003175      0x1b3 ../SynthesizerUnitTestV3_bsp/\libucosii_bsp.a(alt_env_lock.o)
 .debug_abbrev  0x00003328      0x234 ../SynthesizerUnitTestV3_bsp/\libucosii_bsp.a(alt_malloc_lock.o)
 .debug_abbrev  0x0000355c      0x2aa ../SynthesizerUnitTestV3_bsp/\libucosii_bsp.a(os_core.o)
 .debug_abbrev  0x00003806      0x114 ../SynthesizerUnitTestV3_bsp/\libucosii_bsp.a(os_dbg.o)
 .debug_abbrev  0x0000391a      0x21b ../SynthesizerUnitTestV3_bsp/\libucosii_bsp.a(os_flag.o)
 .debug_abbrev  0x00003b35      0x235 ../SynthesizerUnitTestV3_bsp/\libucosii_bsp.a(os_mem.o)
 .debug_abbrev  0x00003d6a      0x20d ../SynthesizerUnitTestV3_bsp/\libucosii_bsp.a(os_q.o)
 .debug_abbrev  0x00003f77      0x20d ../SynthesizerUnitTestV3_bsp/\libucosii_bsp.a(os_sem.o)
 .debug_abbrev  0x00004184      0x20e ../SynthesizerUnitTestV3_bsp/\libucosii_bsp.a(os_task.o)
 .debug_abbrev  0x00004392      0x1de ../SynthesizerUnitTestV3_bsp/\libucosii_bsp.a(os_time.o)
 .debug_abbrev  0x00004570      0x1b9 ../SynthesizerUnitTestV3_bsp/\libucosii_bsp.a(alt_sys_init.o)
 .debug_abbrev  0x00004729       0xa0 ../SynthesizerUnitTestV3_bsp/\libucosii_bsp.a(altera_avalon_fifo_util.o)
 .debug_abbrev  0x000047c9      0x13c ../SynthesizerUnitTestV3_bsp/\libucosii_bsp.a(altera_avalon_jtag_uart_fd.o)
 .debug_abbrev  0x00004905      0x21e ../SynthesizerUnitTestV3_bsp/\libucosii_bsp.a(altera_avalon_jtag_uart_init.o)
 .debug_abbrev  0x00004b23      0x135 ../SynthesizerUnitTestV3_bsp/\libucosii_bsp.a(altera_avalon_jtag_uart_ioctl.o)
 .debug_abbrev  0x00004c58      0x1ee ../SynthesizerUnitTestV3_bsp/\libucosii_bsp.a(altera_avalon_jtag_uart_read.o)
 .debug_abbrev  0x00004e46      0x1ea ../SynthesizerUnitTestV3_bsp/\libucosii_bsp.a(altera_avalon_jtag_uart_write.o)
 .debug_abbrev  0x00005030      0x137 ../SynthesizerUnitTestV3_bsp/\libucosii_bsp.a(altera_avalon_timer_sc.o)
 .debug_abbrev  0x00005167      0x16b ../SynthesizerUnitTestV3_bsp/\libucosii_bsp.a(altera_up_avalon_audio.o)
 .debug_abbrev  0x000052d2      0x117 ../SynthesizerUnitTestV3_bsp/\libucosii_bsp.a(altera_up_avalon_audio_and_video_config.o)
 .debug_abbrev  0x000053e9      0x127 ../SynthesizerUnitTestV3_bsp/\libucosii_bsp.a(altera_up_avalon_character_lcd.o)
 .debug_abbrev  0x00005510      0x172 ../SynthesizerUnitTestV3_bsp/\libucosii_bsp.a(alt_alarm_start.o)
 .debug_abbrev  0x00005682       0x57 ../SynthesizerUnitTestV3_bsp/\libucosii_bsp.a(alt_dcache_flush_all.o)
 .debug_abbrev  0x000056d9       0xf6 ../SynthesizerUnitTestV3_bsp/\libucosii_bsp.a(alt_dev_llist_insert.o)
 .debug_abbrev  0x000057cf       0x76 ../SynthesizerUnitTestV3_bsp/\libucosii_bsp.a(alt_do_ctors.o)
 .debug_abbrev  0x00005845       0x76 ../SynthesizerUnitTestV3_bsp/\libucosii_bsp.a(alt_do_dtors.o)
 .debug_abbrev  0x000058bb       0xd6 ../SynthesizerUnitTestV3_bsp/\libucosii_bsp.a(alt_find_dev.o)
 .debug_abbrev  0x00005991       0x3f ../SynthesizerUnitTestV3_bsp/\libucosii_bsp.a(alt_icache_flush_all.o)
 .debug_abbrev  0x000059d0       0xf7 ../SynthesizerUnitTestV3_bsp/\libucosii_bsp.a(alt_io_redirect.o)
 .debug_abbrev  0x00005ac7      0x180 ../SynthesizerUnitTestV3_bsp/\libucosii_bsp.a(alt_irq_register.o)
 .debug_abbrev  0x00005c47       0x44 ../SynthesizerUnitTestV3_bsp/\libucosii_bsp.a(alt_irq_vars.o)
 .debug_abbrev  0x00005c8b      0x119 ../SynthesizerUnitTestV3_bsp/\libucosii_bsp.a(alt_open.o)
 .debug_abbrev  0x00005da4      0x161 ../SynthesizerUnitTestV3_bsp/\libucosii_bsp.a(alt_tick.o)
 .debug_abbrev  0x00005f05       0x64 ../SynthesizerUnitTestV3_bsp/\libucosii_bsp.a(altera_nios2_qsys_irq.o)
 .debug_abbrev  0x00005f69       0x14 ../SynthesizerUnitTestV3_bsp/\libucosii_bsp.a(os_cpu_a.o)
 .debug_abbrev  0x00005f7d      0x1d0 ../SynthesizerUnitTestV3_bsp/\libucosii_bsp.a(os_cpu_c.o)
 .debug_abbrev  0x0000614d       0xd6 ../SynthesizerUnitTestV3_bsp/\libucosii_bsp.a(alt_find_file.o)
 .debug_abbrev  0x00006223      0x173 ../SynthesizerUnitTestV3_bsp/\libucosii_bsp.a(alt_get_fd.o)
 .debug_abbrev  0x00006396       0x7a ../SynthesizerUnitTestV3_bsp/\libucosii_bsp.a(alt_icache_flush.o)
 .debug_abbrev  0x00006410       0x12 ../SynthesizerUnitTestV3_bsp/\libucosii_bsp.a(alt_irq_entry.o)
 .debug_abbrev  0x00006422      0x124 ../SynthesizerUnitTestV3_bsp/\libucosii_bsp.a(alt_irq_handler.o)
 .debug_abbrev  0x00006546       0x12 ../SynthesizerUnitTestV3_bsp/\libucosii_bsp.a(alt_exception_entry.o)
 .debug_abbrev  0x00006558       0xb7 c:/altera/12.1sp1/nios2eds/bin/gnu/h-i686-mingw32/bin/../lib/gcc/nios2-elf/4.1.2/../../../../nios2-elf/lib\libc.a(lib_a-atexit.o)
 .debug_abbrev  0x0000660f      0x16e c:/altera/12.1sp1/nios2eds/bin/gnu/h-i686-mingw32/bin/../lib/gcc/nios2-elf/4.1.2/../../../../nios2-elf/lib\libc.a(lib_a-exit.o)
 .debug_abbrev  0x0000677d       0x7c c:/altera/12.1sp1/nios2eds/bin/gnu/h-i686-mingw32/bin/../lib/gcc/nios2-elf/4.1.2/../../../../nios2-elf/lib\libc.a(lib_a-memcmp.o)
 .debug_abbrev  0x000067f9      0x1ae c:/altera/12.1sp1/nios2eds/bin/gnu/h-i686-mingw32/bin/../lib/gcc/nios2-elf/4.1.2/../../../../nios2-elf/lib\libc.a(lib_a-__atexit.o)
 .debug_abbrev  0x000069a7      0x1de c:/altera/12.1sp1/nios2eds/bin/gnu/h-i686-mingw32/bin/../lib/gcc/nios2-elf/4.1.2/../../../../nios2-elf/lib\libc.a(lib_a-__call_atexit.o)
 .debug_abbrev  0x00006b85       0xe0 c:/altera/12.1sp1/nios2eds/bin/gnu/h-i686-mingw32/bin/../lib/gcc/nios2-elf/4.1.2\libgcc.a(lib2-divmod.o)
 .debug_abbrev  0x00006c65       0xaa ../SynthesizerUnitTestV3_bsp/\libucosii_bsp.a(alt_exit.o)

.debug_line     0x00000000    0x15a32
 *(.debug_line)
 .debug_line    0x00000000       0x72 ../SynthesizerUnitTestV3_bsp//obj/HAL/src/crt0.o
 .debug_line    0x00000072      0x4ad obj/default/hello_ucosii.o
 .debug_line    0x0000051f      0x2f7 c:/altera/12.1sp1/nios2eds/bin/gnu/h-i686-mingw32/bin/../lib/gcc/nios2-elf/4.1.2/../../../../nios2-elf/lib\libc.a(lib_a-puts.o)
 .debug_line    0x00000816      0x26d c:/altera/12.1sp1/nios2eds/bin/gnu/h-i686-mingw32/bin/../lib/gcc/nios2-elf/4.1.2/../../../../nios2-elf/lib\libc.a(lib_a-strlen.o)
 .debug_line    0x00000a83      0x641 c:/altera/12.1sp1/nios2eds/bin/gnu/h-i686-mingw32/bin/../lib/gcc/nios2-elf/4.1.2/../../../../nios2-elf/lib\libc.a(lib_a-fvwrite.o)
 .debug_line    0x000010c4      0x22d c:/altera/12.1sp1/nios2eds/bin/gnu/h-i686-mingw32/bin/../lib/gcc/nios2-elf/4.1.2/../../../../nios2-elf/lib\libc.a(lib_a-impure.o)
 .debug_line    0x000012f1      0x80a c:/altera/12.1sp1/nios2eds/bin/gnu/h-i686-mingw32/bin/../lib/gcc/nios2-elf/4.1.2/../../../../nios2-elf/lib\libc.a(lib_a-mallocr.o)
 .debug_line    0x00001afb      0x303 c:/altera/12.1sp1/nios2eds/bin/gnu/h-i686-mingw32/bin/../lib/gcc/nios2-elf/4.1.2/../../../../nios2-elf/lib\libc.a(lib_a-memchr.o)
 .debug_line    0x00001dfe      0x1ac c:/altera/12.1sp1/nios2eds/bin/gnu/h-i686-mingw32/bin/../lib/gcc/nios2-elf/4.1.2/../../../../nios2-elf/lib\libc.a(lib_a-memcpy.o)
 .debug_line    0x00001faa      0x30a c:/altera/12.1sp1/nios2eds/bin/gnu/h-i686-mingw32/bin/../lib/gcc/nios2-elf/4.1.2/../../../../nios2-elf/lib\libc.a(lib_a-memmove.o)
 .debug_line    0x000022b4      0x58a c:/altera/12.1sp1/nios2eds/bin/gnu/h-i686-mingw32/bin/../lib/gcc/nios2-elf/4.1.2/../../../../nios2-elf/lib\libc.a(lib_a-reallocr.o)
 .debug_line    0x0000283e      0x299 c:/altera/12.1sp1/nios2eds/bin/gnu/h-i686-mingw32/bin/../lib/gcc/nios2-elf/4.1.2/../../../../nios2-elf/lib\libc.a(lib_a-sbrkr.o)
 .debug_line    0x00002ad7      0x2f0 c:/altera/12.1sp1/nios2eds/bin/gnu/h-i686-mingw32/bin/../lib/gcc/nios2-elf/4.1.2/../../../../nios2-elf/lib\libc.a(lib_a-wsetup.o)
 .debug_line    0x00002dc7      0x40d c:/altera/12.1sp1/nios2eds/bin/gnu/h-i686-mingw32/bin/../lib/gcc/nios2-elf/4.1.2/../../../../nios2-elf/lib\libc.a(lib_a-fflush.o)
 .debug_line    0x000031d4      0x601 c:/altera/12.1sp1/nios2eds/bin/gnu/h-i686-mingw32/bin/../lib/gcc/nios2-elf/4.1.2/../../../../nios2-elf/lib\libc.a(lib_a-findfp.o)
 .debug_line    0x000037d5      0x5eb c:/altera/12.1sp1/nios2eds/bin/gnu/h-i686-mingw32/bin/../lib/gcc/nios2-elf/4.1.2/../../../../nios2-elf/lib\libc.a(lib_a-freer.o)
 .debug_line    0x00003dc0      0x34a c:/altera/12.1sp1/nios2eds/bin/gnu/h-i686-mingw32/bin/../lib/gcc/nios2-elf/4.1.2/../../../../nios2-elf/lib\libc.a(lib_a-fwalk.o)
 .debug_line    0x0000410a      0x1df c:/altera/12.1sp1/nios2eds/bin/gnu/h-i686-mingw32/bin/../lib/gcc/nios2-elf/4.1.2/../../../../nios2-elf/lib\libc.a(lib_a-int_errno.o)
 .debug_line    0x000042e9      0x3c3 c:/altera/12.1sp1/nios2eds/bin/gnu/h-i686-mingw32/bin/../lib/gcc/nios2-elf/4.1.2/../../../../nios2-elf/lib\libc.a(lib_a-makebuf.o)
 .debug_line    0x000046ac      0x301 c:/altera/12.1sp1/nios2eds/bin/gnu/h-i686-mingw32/bin/../lib/gcc/nios2-elf/4.1.2/../../../../nios2-elf/lib\libc.a(lib_a-memset.o)
 .debug_line    0x000049ad      0x38c c:/altera/12.1sp1/nios2eds/bin/gnu/h-i686-mingw32/bin/../lib/gcc/nios2-elf/4.1.2/../../../../nios2-elf/lib\libc.a(lib_a-stdio.o)
 .debug_line    0x00004d39      0x29a c:/altera/12.1sp1/nios2eds/bin/gnu/h-i686-mingw32/bin/../lib/gcc/nios2-elf/4.1.2/../../../../nios2-elf/lib\libc.a(lib_a-writer.o)
 .debug_line    0x00004fd3      0x29a c:/altera/12.1sp1/nios2eds/bin/gnu/h-i686-mingw32/bin/../lib/gcc/nios2-elf/4.1.2/../../../../nios2-elf/lib\libc.a(lib_a-closer.o)
 .debug_line    0x0000526d      0x2e8 c:/altera/12.1sp1/nios2eds/bin/gnu/h-i686-mingw32/bin/../lib/gcc/nios2-elf/4.1.2/../../../../nios2-elf/lib\libc.a(lib_a-fclose.o)
 .debug_line    0x00005555      0x264 c:/altera/12.1sp1/nios2eds/bin/gnu/h-i686-mingw32/bin/../lib/gcc/nios2-elf/4.1.2/../../../../nios2-elf/lib\libc.a(lib_a-fstatr.o)
 .debug_line    0x000057b9      0x29b c:/altera/12.1sp1/nios2eds/bin/gnu/h-i686-mingw32/bin/../lib/gcc/nios2-elf/4.1.2/../../../../nios2-elf/lib\libc.a(lib_a-isattyr.o)
 .debug_line    0x00005a54      0x29a c:/altera/12.1sp1/nios2eds/bin/gnu/h-i686-mingw32/bin/../lib/gcc/nios2-elf/4.1.2/../../../../nios2-elf/lib\libc.a(lib_a-lseekr.o)
 .debug_line    0x00005cee      0x299 c:/altera/12.1sp1/nios2eds/bin/gnu/h-i686-mingw32/bin/../lib/gcc/nios2-elf/4.1.2/../../../../nios2-elf/lib\libc.a(lib_a-readr.o)
 .debug_line    0x00005f87      0x30d ../SynthesizerUnitTestV3_bsp/\libucosii_bsp.a(alt_close.o)
 .debug_line    0x00006294      0x2d1 ../SynthesizerUnitTestV3_bsp/\libucosii_bsp.a(alt_dev.o)
 .debug_line    0x00006565      0x1aa ../SynthesizerUnitTestV3_bsp/\libucosii_bsp.a(alt_errno.o)
 .debug_line    0x0000670f      0x315 ../SynthesizerUnitTestV3_bsp/\libucosii_bsp.a(alt_fstat.o)
 .debug_line    0x00006a24      0x316 ../SynthesizerUnitTestV3_bsp/\libucosii_bsp.a(alt_isatty.o)
 .debug_line    0x00006d3a      0x217 ../SynthesizerUnitTestV3_bsp/\libucosii_bsp.a(alt_load.o)
 .debug_line    0x00006f51      0x315 ../SynthesizerUnitTestV3_bsp/\libucosii_bsp.a(alt_lseek.o)
 .debug_line    0x00007266      0x35d ../SynthesizerUnitTestV3_bsp/\libucosii_bsp.a(alt_main.o)
 .debug_line    0x000075c3      0x33c ../SynthesizerUnitTestV3_bsp/\libucosii_bsp.a(alt_read.o)
 .debug_line    0x000078ff      0x28d ../SynthesizerUnitTestV3_bsp/\libucosii_bsp.a(alt_release_fd.o)
 .debug_line    0x00007b8c      0x27a ../SynthesizerUnitTestV3_bsp/\libucosii_bsp.a(alt_sbrk.o)
 .debug_line    0x00007e06      0x33d ../SynthesizerUnitTestV3_bsp/\libucosii_bsp.a(alt_write.o)
 .debug_line    0x00008143      0x2d8 ../SynthesizerUnitTestV3_bsp/\libucosii_bsp.a(alt_env_lock.o)
 .debug_line    0x0000841b      0x394 ../SynthesizerUnitTestV3_bsp/\libucosii_bsp.a(alt_malloc_lock.o)
 .debug_line    0x000087af     0x167c ../SynthesizerUnitTestV3_bsp/\libucosii_bsp.a(os_core.o)
 .debug_line    0x00009e2b      0x3a1 ../SynthesizerUnitTestV3_bsp/\libucosii_bsp.a(os_dbg.o)
 .debug_line    0x0000a1cc     0x1200 ../SynthesizerUnitTestV3_bsp/\libucosii_bsp.a(os_flag.o)
 .debug_line    0x0000b3cc      0x7a3 ../SynthesizerUnitTestV3_bsp/\libucosii_bsp.a(os_mem.o)
 .debug_line    0x0000bb6f      0xe84 ../SynthesizerUnitTestV3_bsp/\libucosii_bsp.a(os_q.o)
 .debug_line    0x0000c9f3      0xa3c ../SynthesizerUnitTestV3_bsp/\libucosii_bsp.a(os_sem.o)
 .debug_line    0x0000d42f     0x1145 ../SynthesizerUnitTestV3_bsp/\libucosii_bsp.a(os_task.o)
 .debug_line    0x0000e574      0x548 ../SynthesizerUnitTestV3_bsp/\libucosii_bsp.a(os_time.o)
 .debug_line    0x0000eabc      0x395 ../SynthesizerUnitTestV3_bsp/\libucosii_bsp.a(alt_sys_init.o)
 .debug_line    0x0000ee51      0x46a ../SynthesizerUnitTestV3_bsp/\libucosii_bsp.a(altera_avalon_fifo_util.o)
 .debug_line    0x0000f2bb      0x330 ../SynthesizerUnitTestV3_bsp/\libucosii_bsp.a(altera_avalon_jtag_uart_fd.o)
 .debug_line    0x0000f5eb      0x5af ../SynthesizerUnitTestV3_bsp/\libucosii_bsp.a(altera_avalon_jtag_uart_init.o)
 .debug_line    0x0000fb9a      0x36d ../SynthesizerUnitTestV3_bsp/\libucosii_bsp.a(altera_avalon_jtag_uart_ioctl.o)
 .debug_line    0x0000ff07      0x4ab ../SynthesizerUnitTestV3_bsp/\libucosii_bsp.a(altera_avalon_jtag_uart_read.o)
 .debug_line    0x000103b2      0x4b9 ../SynthesizerUnitTestV3_bsp/\libucosii_bsp.a(altera_avalon_jtag_uart_write.o)
 .debug_line    0x0001086b      0x2ca ../SynthesizerUnitTestV3_bsp/\libucosii_bsp.a(altera_avalon_timer_sc.o)
 .debug_line    0x00010b35      0x5ed ../SynthesizerUnitTestV3_bsp/\libucosii_bsp.a(altera_up_avalon_audio.o)
 .debug_line    0x00011122      0x5bb ../SynthesizerUnitTestV3_bsp/\libucosii_bsp.a(altera_up_avalon_audio_and_video_config.o)
 .debug_line    0x000116dd      0x4d9 ../SynthesizerUnitTestV3_bsp/\libucosii_bsp.a(altera_up_avalon_character_lcd.o)
 .debug_line    0x00011bb6      0x2f5 ../SynthesizerUnitTestV3_bsp/\libucosii_bsp.a(alt_alarm_start.o)
 .debug_line    0x00011eab      0x1cd ../SynthesizerUnitTestV3_bsp/\libucosii_bsp.a(alt_dcache_flush_all.o)
 .debug_line    0x00012078      0x25a ../SynthesizerUnitTestV3_bsp/\libucosii_bsp.a(alt_dev_llist_insert.o)
 .debug_line    0x000122d2       0x83 ../SynthesizerUnitTestV3_bsp/\libucosii_bsp.a(alt_do_ctors.o)
 .debug_line    0x00012355       0x83 ../SynthesizerUnitTestV3_bsp/\libucosii_bsp.a(alt_do_dtors.o)
 .debug_line    0x000123d8      0x2ee ../SynthesizerUnitTestV3_bsp/\libucosii_bsp.a(alt_find_dev.o)
 .debug_line    0x000126c6      0x1bd ../SynthesizerUnitTestV3_bsp/\libucosii_bsp.a(alt_icache_flush_all.o)
 .debug_line    0x00012883      0x337 ../SynthesizerUnitTestV3_bsp/\libucosii_bsp.a(alt_io_redirect.o)
 .debug_line    0x00012bba      0x36d ../SynthesizerUnitTestV3_bsp/\libucosii_bsp.a(alt_irq_register.o)
 .debug_line    0x00012f27       0x72 ../SynthesizerUnitTestV3_bsp/\libucosii_bsp.a(alt_irq_vars.o)
 .debug_line    0x00012f99      0x373 ../SynthesizerUnitTestV3_bsp/\libucosii_bsp.a(alt_open.o)
 .debug_line    0x0001330c      0x32f ../SynthesizerUnitTestV3_bsp/\libucosii_bsp.a(alt_tick.o)
 .debug_line    0x0001363b      0x1e7 ../SynthesizerUnitTestV3_bsp/\libucosii_bsp.a(altera_nios2_qsys_irq.o)
 .debug_line    0x00013822       0x86 ../SynthesizerUnitTestV3_bsp/\libucosii_bsp.a(os_cpu_a.o)
 .debug_line    0x000138a8      0x341 ../SynthesizerUnitTestV3_bsp/\libucosii_bsp.a(os_cpu_c.o)
 .debug_line    0x00013be9      0x2ff ../SynthesizerUnitTestV3_bsp/\libucosii_bsp.a(alt_find_file.o)
 .debug_line    0x00013ee8      0x32f ../SynthesizerUnitTestV3_bsp/\libucosii_bsp.a(alt_get_fd.o)
 .debug_line    0x00014217      0x1f9 ../SynthesizerUnitTestV3_bsp/\libucosii_bsp.a(alt_icache_flush.o)
 .debug_line    0x00014410       0x6b ../SynthesizerUnitTestV3_bsp/\libucosii_bsp.a(alt_irq_entry.o)
 .debug_line    0x0001447b      0x2dd ../SynthesizerUnitTestV3_bsp/\libucosii_bsp.a(alt_irq_handler.o)
 .debug_line    0x00014758       0xab ../SynthesizerUnitTestV3_bsp/\libucosii_bsp.a(alt_exception_entry.o)
 .debug_line    0x00014803      0x200 c:/altera/12.1sp1/nios2eds/bin/gnu/h-i686-mingw32/bin/../lib/gcc/nios2-elf/4.1.2/../../../../nios2-elf/lib\libc.a(lib_a-atexit.o)
 .debug_line    0x00014a03      0x238 c:/altera/12.1sp1/nios2eds/bin/gnu/h-i686-mingw32/bin/../lib/gcc/nios2-elf/4.1.2/../../../../nios2-elf/lib\libc.a(lib_a-exit.o)
 .debug_line    0x00014c3b      0x29f c:/altera/12.1sp1/nios2eds/bin/gnu/h-i686-mingw32/bin/../lib/gcc/nios2-elf/4.1.2/../../../../nios2-elf/lib\libc.a(lib_a-memcmp.o)
 .debug_line    0x00014eda      0x313 c:/altera/12.1sp1/nios2eds/bin/gnu/h-i686-mingw32/bin/../lib/gcc/nios2-elf/4.1.2/../../../../nios2-elf/lib\libc.a(lib_a-__atexit.o)
 .debug_line    0x000151ed      0x367 c:/altera/12.1sp1/nios2eds/bin/gnu/h-i686-mingw32/bin/../lib/gcc/nios2-elf/4.1.2/../../../../nios2-elf/lib\libc.a(lib_a-__call_atexit.o)
 .debug_line    0x00015554      0x24f c:/altera/12.1sp1/nios2eds/bin/gnu/h-i686-mingw32/bin/../lib/gcc/nios2-elf/4.1.2\libgcc.a(lib2-divmod.o)
 .debug_line    0x000157a3      0x28f ../SynthesizerUnitTestV3_bsp/\libucosii_bsp.a(alt_exit.o)

.debug_frame    0x00000000     0x23a8
 *(.debug_frame)
 .debug_frame   0x00000000       0x68 obj/default/hello_ucosii.o
 .debug_frame   0x00000068       0x3c c:/altera/12.1sp1/nios2eds/bin/gnu/h-i686-mingw32/bin/../lib/gcc/nios2-elf/4.1.2/../../../../nios2-elf/lib\libc.a(lib_a-puts.o)
 .debug_frame   0x000000a4       0x20 c:/altera/12.1sp1/nios2eds/bin/gnu/h-i686-mingw32/bin/../lib/gcc/nios2-elf/4.1.2/../../../../nios2-elf/lib\libc.a(lib_a-strlen.o)
 .debug_frame   0x000000c4       0x38 c:/altera/12.1sp1/nios2eds/bin/gnu/h-i686-mingw32/bin/../lib/gcc/nios2-elf/4.1.2/../../../../nios2-elf/lib\libc.a(lib_a-fvwrite.o)
 .debug_frame   0x000000fc       0x38 c:/altera/12.1sp1/nios2eds/bin/gnu/h-i686-mingw32/bin/../lib/gcc/nios2-elf/4.1.2/../../../../nios2-elf/lib\libc.a(lib_a-mallocr.o)
 .debug_frame   0x00000134       0x20 c:/altera/12.1sp1/nios2eds/bin/gnu/h-i686-mingw32/bin/../lib/gcc/nios2-elf/4.1.2/../../../../nios2-elf/lib\libc.a(lib_a-memchr.o)
 .debug_frame   0x00000154       0x20 c:/altera/12.1sp1/nios2eds/bin/gnu/h-i686-mingw32/bin/../lib/gcc/nios2-elf/4.1.2/../../../../nios2-elf/lib\libc.a(lib_a-memcpy.o)
 .debug_frame   0x00000174       0x20 c:/altera/12.1sp1/nios2eds/bin/gnu/h-i686-mingw32/bin/../lib/gcc/nios2-elf/4.1.2/../../../../nios2-elf/lib\libc.a(lib_a-memmove.o)
 .debug_frame   0x00000194       0x38 c:/altera/12.1sp1/nios2eds/bin/gnu/h-i686-mingw32/bin/../lib/gcc/nios2-elf/4.1.2/../../../../nios2-elf/lib\libc.a(lib_a-reallocr.o)
 .debug_frame   0x000001cc       0x2c c:/altera/12.1sp1/nios2eds/bin/gnu/h-i686-mingw32/bin/../lib/gcc/nios2-elf/4.1.2/../../../../nios2-elf/lib\libc.a(lib_a-sbrkr.o)
 .debug_frame   0x000001f8       0x2c c:/altera/12.1sp1/nios2eds/bin/gnu/h-i686-mingw32/bin/../lib/gcc/nios2-elf/4.1.2/../../../../nios2-elf/lib\libc.a(lib_a-wsetup.o)
 .debug_frame   0x00000224       0x40 c:/altera/12.1sp1/nios2eds/bin/gnu/h-i686-mingw32/bin/../lib/gcc/nios2-elf/4.1.2/../../../../nios2-elf/lib\libc.a(lib_a-fflush.o)
 .debug_frame   0x00000264      0x118 c:/altera/12.1sp1/nios2eds/bin/gnu/h-i686-mingw32/bin/../lib/gcc/nios2-elf/4.1.2/../../../../nios2-elf/lib\libc.a(lib_a-findfp.o)
 .debug_frame   0x0000037c       0x4c c:/altera/12.1sp1/nios2eds/bin/gnu/h-i686-mingw32/bin/../lib/gcc/nios2-elf/4.1.2/../../../../nios2-elf/lib\libc.a(lib_a-freer.o)
 .debug_frame   0x000003c8       0x60 c:/altera/12.1sp1/nios2eds/bin/gnu/h-i686-mingw32/bin/../lib/gcc/nios2-elf/4.1.2/../../../../nios2-elf/lib\libc.a(lib_a-fwalk.o)
 .debug_frame   0x00000428       0x2c c:/altera/12.1sp1/nios2eds/bin/gnu/h-i686-mingw32/bin/../lib/gcc/nios2-elf/4.1.2/../../../../nios2-elf/lib\libc.a(lib_a-makebuf.o)
 .debug_frame   0x00000454       0x20 c:/altera/12.1sp1/nios2eds/bin/gnu/h-i686-mingw32/bin/../lib/gcc/nios2-elf/4.1.2/../../../../nios2-elf/lib\libc.a(lib_a-memset.o)
 .debug_frame   0x00000474       0x78 c:/altera/12.1sp1/nios2eds/bin/gnu/h-i686-mingw32/bin/../lib/gcc/nios2-elf/4.1.2/../../../../nios2-elf/lib\libc.a(lib_a-stdio.o)
 .debug_frame   0x000004ec       0x2c c:/altera/12.1sp1/nios2eds/bin/gnu/h-i686-mingw32/bin/../lib/gcc/nios2-elf/4.1.2/../../../../nios2-elf/lib\libc.a(lib_a-writer.o)
 .debug_frame   0x00000518       0x2c c:/altera/12.1sp1/nios2eds/bin/gnu/h-i686-mingw32/bin/../lib/gcc/nios2-elf/4.1.2/../../../../nios2-elf/lib\libc.a(lib_a-closer.o)
 .debug_frame   0x00000544       0x3c c:/altera/12.1sp1/nios2eds/bin/gnu/h-i686-mingw32/bin/../lib/gcc/nios2-elf/4.1.2/../../../../nios2-elf/lib\libc.a(lib_a-fclose.o)
 .debug_frame   0x00000580       0x2c c:/altera/12.1sp1/nios2eds/bin/gnu/h-i686-mingw32/bin/../lib/gcc/nios2-elf/4.1.2/../../../../nios2-elf/lib\libc.a(lib_a-fstatr.o)
 .debug_frame   0x000005ac       0x2c c:/altera/12.1sp1/nios2eds/bin/gnu/h-i686-mingw32/bin/../lib/gcc/nios2-elf/4.1.2/../../../../nios2-elf/lib\libc.a(lib_a-isattyr.o)
 .debug_frame   0x000005d8       0x2c c:/altera/12.1sp1/nios2eds/bin/gnu/h-i686-mingw32/bin/../lib/gcc/nios2-elf/4.1.2/../../../../nios2-elf/lib\libc.a(lib_a-lseekr.o)
 .debug_frame   0x00000604       0x2c c:/altera/12.1sp1/nios2eds/bin/gnu/h-i686-mingw32/bin/../lib/gcc/nios2-elf/4.1.2/../../../../nios2-elf/lib\libc.a(lib_a-readr.o)
 .debug_frame   0x00000630       0x48 ../SynthesizerUnitTestV3_bsp/\libucosii_bsp.a(alt_close.o)
 .debug_frame   0x00000678       0x2c ../SynthesizerUnitTestV3_bsp/\libucosii_bsp.a(alt_dev.o)
 .debug_frame   0x000006a4       0x48 ../SynthesizerUnitTestV3_bsp/\libucosii_bsp.a(alt_fstat.o)
 .debug_frame   0x000006ec       0x48 ../SynthesizerUnitTestV3_bsp/\libucosii_bsp.a(alt_isatty.o)
 .debug_frame   0x00000734       0x48 ../SynthesizerUnitTestV3_bsp/\libucosii_bsp.a(alt_load.o)
 .debug_frame   0x0000077c       0x48 ../SynthesizerUnitTestV3_bsp/\libucosii_bsp.a(alt_lseek.o)
 .debug_frame   0x000007c4       0x2c ../SynthesizerUnitTestV3_bsp/\libucosii_bsp.a(alt_main.o)
 .debug_frame   0x000007f0       0x48 ../SynthesizerUnitTestV3_bsp/\libucosii_bsp.a(alt_read.o)
 .debug_frame   0x00000838       0x2c ../SynthesizerUnitTestV3_bsp/\libucosii_bsp.a(alt_release_fd.o)
 .debug_frame   0x00000864       0x2c ../SynthesizerUnitTestV3_bsp/\libucosii_bsp.a(alt_sbrk.o)
 .debug_frame   0x00000890       0x48 ../SynthesizerUnitTestV3_bsp/\libucosii_bsp.a(alt_write.o)
 .debug_frame   0x000008d8       0x4c ../SynthesizerUnitTestV3_bsp/\libucosii_bsp.a(alt_env_lock.o)
 .debug_frame   0x00000924       0x4c ../SynthesizerUnitTestV3_bsp/\libucosii_bsp.a(alt_malloc_lock.o)
 .debug_frame   0x00000970      0x3e4 ../SynthesizerUnitTestV3_bsp/\libucosii_bsp.a(os_core.o)
 .debug_frame   0x00000d54       0x2c ../SynthesizerUnitTestV3_bsp/\libucosii_bsp.a(os_dbg.o)
 .debug_frame   0x00000d80      0x180 ../SynthesizerUnitTestV3_bsp/\libucosii_bsp.a(os_flag.o)
 .debug_frame   0x00000f00       0xd4 ../SynthesizerUnitTestV3_bsp/\libucosii_bsp.a(os_mem.o)
 .debug_frame   0x00000fd4      0x144 ../SynthesizerUnitTestV3_bsp/\libucosii_bsp.a(os_q.o)
 .debug_frame   0x00001118       0xf0 ../SynthesizerUnitTestV3_bsp/\libucosii_bsp.a(os_sem.o)
 .debug_frame   0x00001208      0x160 ../SynthesizerUnitTestV3_bsp/\libucosii_bsp.a(os_task.o)
 .debug_frame   0x00001368       0xa0 ../SynthesizerUnitTestV3_bsp/\libucosii_bsp.a(os_time.o)
 .debug_frame   0x00001408       0x64 ../SynthesizerUnitTestV3_bsp/\libucosii_bsp.a(alt_sys_init.o)
 .debug_frame   0x0000146c      0x1ec ../SynthesizerUnitTestV3_bsp/\libucosii_bsp.a(altera_avalon_fifo_util.o)
 .debug_frame   0x00001658       0x80 ../SynthesizerUnitTestV3_bsp/\libucosii_bsp.a(altera_avalon_jtag_uart_fd.o)
 .debug_frame   0x000016d8       0x80 ../SynthesizerUnitTestV3_bsp/\libucosii_bsp.a(altera_avalon_jtag_uart_init.o)
 .debug_frame   0x00001758       0x2c ../SynthesizerUnitTestV3_bsp/\libucosii_bsp.a(altera_avalon_jtag_uart_ioctl.o)
 .debug_frame   0x00001784       0x2c ../SynthesizerUnitTestV3_bsp/\libucosii_bsp.a(altera_avalon_jtag_uart_read.o)
 .debug_frame   0x000017b0       0x2c ../SynthesizerUnitTestV3_bsp/\libucosii_bsp.a(altera_avalon_jtag_uart_write.o)
 .debug_frame   0x000017dc       0x48 ../SynthesizerUnitTestV3_bsp/\libucosii_bsp.a(altera_avalon_timer_sc.o)
 .debug_frame   0x00001824      0x208 ../SynthesizerUnitTestV3_bsp/\libucosii_bsp.a(altera_up_avalon_audio.o)
 .debug_frame   0x00001a2c      0x1ec ../SynthesizerUnitTestV3_bsp/\libucosii_bsp.a(altera_up_avalon_audio_and_video_config.o)
 .debug_frame   0x00001c18      0x17c ../SynthesizerUnitTestV3_bsp/\libucosii_bsp.a(altera_up_avalon_character_lcd.o)
 .debug_frame   0x00001d94       0x2c ../SynthesizerUnitTestV3_bsp/\libucosii_bsp.a(alt_alarm_start.o)
 .debug_frame   0x00001dc0       0x2c ../SynthesizerUnitTestV3_bsp/\libucosii_bsp.a(alt_dcache_flush_all.o)
 .debug_frame   0x00001dec       0x48 ../SynthesizerUnitTestV3_bsp/\libucosii_bsp.a(alt_dev_llist_insert.o)
 .debug_frame   0x00001e34       0x2c ../SynthesizerUnitTestV3_bsp/\libucosii_bsp.a(alt_do_ctors.o)
 .debug_frame   0x00001e60       0x2c ../SynthesizerUnitTestV3_bsp/\libucosii_bsp.a(alt_do_dtors.o)
 .debug_frame   0x00001e8c       0x2c ../SynthesizerUnitTestV3_bsp/\libucosii_bsp.a(alt_find_dev.o)
 .debug_frame   0x00001eb8       0x2c ../SynthesizerUnitTestV3_bsp/\libucosii_bsp.a(alt_icache_flush_all.o)
 .debug_frame   0x00001ee4       0x48 ../SynthesizerUnitTestV3_bsp/\libucosii_bsp.a(alt_io_redirect.o)
 .debug_frame   0x00001f2c       0x2c ../SynthesizerUnitTestV3_bsp/\libucosii_bsp.a(alt_irq_register.o)
 .debug_frame   0x00001f58       0x64 ../SynthesizerUnitTestV3_bsp/\libucosii_bsp.a(alt_open.o)
 .debug_frame   0x00001fbc       0x48 ../SynthesizerUnitTestV3_bsp/\libucosii_bsp.a(alt_tick.o)
 .debug_frame   0x00002004       0x2c ../SynthesizerUnitTestV3_bsp/\libucosii_bsp.a(altera_nios2_qsys_irq.o)
 .debug_frame   0x00002030      0x128 ../SynthesizerUnitTestV3_bsp/\libucosii_bsp.a(os_cpu_c.o)
 .debug_frame   0x00002158       0x2c ../SynthesizerUnitTestV3_bsp/\libucosii_bsp.a(alt_find_file.o)
 .debug_frame   0x00002184       0x2c ../SynthesizerUnitTestV3_bsp/\libucosii_bsp.a(alt_get_fd.o)
 .debug_frame   0x000021b0       0x2c ../SynthesizerUnitTestV3_bsp/\libucosii_bsp.a(alt_icache_flush.o)
 .debug_frame   0x000021dc       0x2c ../SynthesizerUnitTestV3_bsp/\libucosii_bsp.a(alt_irq_handler.o)
 .debug_frame   0x00002208       0x20 c:/altera/12.1sp1/nios2eds/bin/gnu/h-i686-mingw32/bin/../lib/gcc/nios2-elf/4.1.2/../../../../nios2-elf/lib\libc.a(lib_a-atexit.o)
 .debug_frame   0x00002228       0x28 c:/altera/12.1sp1/nios2eds/bin/gnu/h-i686-mingw32/bin/../lib/gcc/nios2-elf/4.1.2/../../../../nios2-elf/lib\libc.a(lib_a-exit.o)
 .debug_frame   0x00002250       0x20 c:/altera/12.1sp1/nios2eds/bin/gnu/h-i686-mingw32/bin/../lib/gcc/nios2-elf/4.1.2/../../../../nios2-elf/lib\libc.a(lib_a-memcmp.o)
 .debug_frame   0x00002270       0x34 c:/altera/12.1sp1/nios2eds/bin/gnu/h-i686-mingw32/bin/../lib/gcc/nios2-elf/4.1.2/../../../../nios2-elf/lib\libc.a(lib_a-__atexit.o)
 .debug_frame   0x000022a4       0x4c c:/altera/12.1sp1/nios2eds/bin/gnu/h-i686-mingw32/bin/../lib/gcc/nios2-elf/4.1.2/../../../../nios2-elf/lib\libc.a(lib_a-__call_atexit.o)
 .debug_frame   0x000022f0       0x70 c:/altera/12.1sp1/nios2eds/bin/gnu/h-i686-mingw32/bin/../lib/gcc/nios2-elf/4.1.2\libgcc.a(lib2-divmod.o)
 .debug_frame   0x00002360       0x48 ../SynthesizerUnitTestV3_bsp/\libucosii_bsp.a(alt_exit.o)

.debug_str      0x00000000     0x1a99
 *(.debug_str)
 .debug_str     0x00000000       0x38 obj/default/hello_ucosii.o
 .debug_str     0x00000038      0x4cf c:/altera/12.1sp1/nios2eds/bin/gnu/h-i686-mingw32/bin/../lib/gcc/nios2-elf/4.1.2/../../../../nios2-elf/lib\libc.a(lib_a-puts.o)
                                0x549 (size before relaxing)
 .debug_str     0x00000507       0xdb c:/altera/12.1sp1/nios2eds/bin/gnu/h-i686-mingw32/bin/../lib/gcc/nios2-elf/4.1.2/../../../../nios2-elf/lib\libc.a(lib_a-strlen.o)
                                0x17d (size before relaxing)
 .debug_str     0x000005e2       0x66 c:/altera/12.1sp1/nios2eds/bin/gnu/h-i686-mingw32/bin/../lib/gcc/nios2-elf/4.1.2/../../../../nios2-elf/lib\libc.a(lib_a-fvwrite.o)
                                0x563 (size before relaxing)
 .debug_str     0x00000648       0xe4 c:/altera/12.1sp1/nios2eds/bin/gnu/h-i686-mingw32/bin/../lib/gcc/nios2-elf/4.1.2/../../../../nios2-elf/lib\libc.a(lib_a-impure.o)
                                0x51a (size before relaxing)
 .debug_str     0x0000072c      0x29a c:/altera/12.1sp1/nios2eds/bin/gnu/h-i686-mingw32/bin/../lib/gcc/nios2-elf/4.1.2/../../../../nios2-elf/lib\libc.a(lib_a-mallocr.o)
                                0x6f1 (size before relaxing)
 .debug_str     0x000009c6       0x63 c:/altera/12.1sp1/nios2eds/bin/gnu/h-i686-mingw32/bin/../lib/gcc/nios2-elf/4.1.2/../../../../nios2-elf/lib\libc.a(lib_a-memchr.o)
                                0x18b (size before relaxing)
 .debug_str     0x00000a29       0x69 c:/altera/12.1sp1/nios2eds/bin/gnu/h-i686-mingw32/bin/../lib/gcc/nios2-elf/4.1.2/../../../../nios2-elf/lib\libc.a(lib_a-memcpy.o)
                                0x128 (size before relaxing)
 .debug_str     0x00000a92       0x4d c:/altera/12.1sp1/nios2eds/bin/gnu/h-i686-mingw32/bin/../lib/gcc/nios2-elf/4.1.2/../../../../nios2-elf/lib\libc.a(lib_a-memmove.o)
                                0x19d (size before relaxing)
 .debug_str     0x00000adf       0x59 c:/altera/12.1sp1/nios2eds/bin/gnu/h-i686-mingw32/bin/../lib/gcc/nios2-elf/4.1.2/../../../../nios2-elf/lib\libc.a(lib_a-reallocr.o)
                                0x5c3 (size before relaxing)
 .debug_str     0x00000b38       0x50 c:/altera/12.1sp1/nios2eds/bin/gnu/h-i686-mingw32/bin/../lib/gcc/nios2-elf/4.1.2/../../../../nios2-elf/lib\libc.a(lib_a-sbrkr.o)
                                0x50b (size before relaxing)
 .debug_str     0x00000b88       0x46 c:/altera/12.1sp1/nios2eds/bin/gnu/h-i686-mingw32/bin/../lib/gcc/nios2-elf/4.1.2/../../../../nios2-elf/lib\libc.a(lib_a-wsetup.o)
                                0x50c (size before relaxing)
 .debug_str     0x00000bce       0x52 c:/altera/12.1sp1/nios2eds/bin/gnu/h-i686-mingw32/bin/../lib/gcc/nios2-elf/4.1.2/../../../../nios2-elf/lib\libc.a(lib_a-fflush.o)
                                0x532 (size before relaxing)
 .debug_str     0x00000c20      0x102 c:/altera/12.1sp1/nios2eds/bin/gnu/h-i686-mingw32/bin/../lib/gcc/nios2-elf/4.1.2/../../../../nios2-elf/lib\libc.a(lib_a-findfp.o)
                                0x5f4 (size before relaxing)
 .debug_str     0x00000d22       0x3c c:/altera/12.1sp1/nios2eds/bin/gnu/h-i686-mingw32/bin/../lib/gcc/nios2-elf/4.1.2/../../../../nios2-elf/lib\libc.a(lib_a-freer.o)
                                0x643 (size before relaxing)
 .debug_str     0x00000d5e       0x5e c:/altera/12.1sp1/nios2eds/bin/gnu/h-i686-mingw32/bin/../lib/gcc/nios2-elf/4.1.2/../../../../nios2-elf/lib\libc.a(lib_a-fwalk.o)
                                0x535 (size before relaxing)
 .debug_str     0x00000dbc       0x3d c:/altera/12.1sp1/nios2eds/bin/gnu/h-i686-mingw32/bin/../lib/gcc/nios2-elf/4.1.2/../../../../nios2-elf/lib\libc.a(lib_a-int_errno.o)
                                0x163 (size before relaxing)
 .debug_str     0x00000df9      0x123 c:/altera/12.1sp1/nios2eds/bin/gnu/h-i686-mingw32/bin/../lib/gcc/nios2-elf/4.1.2/../../../../nios2-elf/lib\libc.a(lib_a-makebuf.o)
                                0x606 (size before relaxing)
 .debug_str     0x00000f1c       0x42 c:/altera/12.1sp1/nios2eds/bin/gnu/h-i686-mingw32/bin/../lib/gcc/nios2-elf/4.1.2/../../../../nios2-elf/lib\libc.a(lib_a-memset.o)
                                0x17e (size before relaxing)
 .debug_str     0x00000f5e       0x62 c:/altera/12.1sp1/nios2eds/bin/gnu/h-i686-mingw32/bin/../lib/gcc/nios2-elf/4.1.2/../../../../nios2-elf/lib\libc.a(lib_a-stdio.o)
                                0x531 (size before relaxing)
 .debug_str     0x00000fc0       0x4c c:/altera/12.1sp1/nios2eds/bin/gnu/h-i686-mingw32/bin/../lib/gcc/nios2-elf/4.1.2/../../../../nios2-elf/lib\libc.a(lib_a-writer.o)
                                0x50e (size before relaxing)
 .debug_str     0x0000100c       0x43 c:/altera/12.1sp1/nios2eds/bin/gnu/h-i686-mingw32/bin/../lib/gcc/nios2-elf/4.1.2/../../../../nios2-elf/lib\libc.a(lib_a-closer.o)
                                0x4fe (size before relaxing)
 .debug_str     0x0000104f       0x50 c:/altera/12.1sp1/nios2eds/bin/gnu/h-i686-mingw32/bin/../lib/gcc/nios2-elf/4.1.2/../../../../nios2-elf/lib\libc.a(lib_a-fclose.o)
                                0x516 (size before relaxing)
 .debug_str     0x0000109f       0x49 c:/altera/12.1sp1/nios2eds/bin/gnu/h-i686-mingw32/bin/../lib/gcc/nios2-elf/4.1.2/../../../../nios2-elf/lib\libc.a(lib_a-fstatr.o)
                                0x5f1 (size before relaxing)
 .debug_str     0x000010e8       0x45 c:/altera/12.1sp1/nios2eds/bin/gnu/h-i686-mingw32/bin/../lib/gcc/nios2-elf/4.1.2/../../../../nios2-elf/lib\libc.a(lib_a-isattyr.o)
                                0x500 (size before relaxing)
 .debug_str     0x0000112d       0x43 c:/altera/12.1sp1/nios2eds/bin/gnu/h-i686-mingw32/bin/../lib/gcc/nios2-elf/4.1.2/../../../../nios2-elf/lib\libc.a(lib_a-lseekr.o)
                                0x50c (size before relaxing)
 .debug_str     0x00001170       0x41 c:/altera/12.1sp1/nios2eds/bin/gnu/h-i686-mingw32/bin/../lib/gcc/nios2-elf/4.1.2/../../../../nios2-elf/lib\libc.a(lib_a-readr.o)
                                0x50c (size before relaxing)
 .debug_str     0x000011b1       0x12 ../SynthesizerUnitTestV3_bsp/\libucosii_bsp.a(alt_close.o)
 .debug_str     0x000011c3       0x12 ../SynthesizerUnitTestV3_bsp/\libucosii_bsp.a(alt_dev.o)
 .debug_str     0x000011d5       0x12 ../SynthesizerUnitTestV3_bsp/\libucosii_bsp.a(alt_errno.o)
 .debug_str     0x000011e7       0x12 ../SynthesizerUnitTestV3_bsp/\libucosii_bsp.a(alt_fstat.o)
 .debug_str     0x000011f9       0x12 ../SynthesizerUnitTestV3_bsp/\libucosii_bsp.a(alt_isatty.o)
 .debug_str     0x0000120b       0x12 ../SynthesizerUnitTestV3_bsp/\libucosii_bsp.a(alt_load.o)
 .debug_str     0x0000121d       0x12 ../SynthesizerUnitTestV3_bsp/\libucosii_bsp.a(alt_lseek.o)
 .debug_str     0x0000122f       0x12 ../SynthesizerUnitTestV3_bsp/\libucosii_bsp.a(alt_main.o)
 .debug_str     0x00001241       0x12 ../SynthesizerUnitTestV3_bsp/\libucosii_bsp.a(alt_read.o)
 .debug_str     0x00001253       0x12 ../SynthesizerUnitTestV3_bsp/\libucosii_bsp.a(alt_release_fd.o)
 .debug_str     0x00001265       0x1a ../SynthesizerUnitTestV3_bsp/\libucosii_bsp.a(alt_sbrk.o)
 .debug_str     0x0000127f       0x12 ../SynthesizerUnitTestV3_bsp/\libucosii_bsp.a(alt_write.o)
 .debug_str     0x00001291       0x36 ../SynthesizerUnitTestV3_bsp/\libucosii_bsp.a(alt_env_lock.o)
 .debug_str     0x000012c7       0x36 ../SynthesizerUnitTestV3_bsp/\libucosii_bsp.a(alt_malloc_lock.o)
 .debug_str     0x000012fd       0x46 ../SynthesizerUnitTestV3_bsp/\libucosii_bsp.a(os_core.o)
 .debug_str     0x00001343       0x2b ../SynthesizerUnitTestV3_bsp/\libucosii_bsp.a(os_dbg.o)
 .debug_str     0x0000136e       0x4e ../SynthesizerUnitTestV3_bsp/\libucosii_bsp.a(os_flag.o)
 .debug_str     0x000013bc       0x2c ../SynthesizerUnitTestV3_bsp/\libucosii_bsp.a(os_mem.o)
 .debug_str     0x000013e8       0x36 ../SynthesizerUnitTestV3_bsp/\libucosii_bsp.a(os_q.o)
 .debug_str     0x0000141e       0x36 ../SynthesizerUnitTestV3_bsp/\libucosii_bsp.a(os_sem.o)
 .debug_str     0x00001454       0x23 ../SynthesizerUnitTestV3_bsp/\libucosii_bsp.a(os_task.o)
 .debug_str     0x00001477       0x1f ../SynthesizerUnitTestV3_bsp/\libucosii_bsp.a(os_time.o)
 .debug_str     0x00001496       0x51 ../SynthesizerUnitTestV3_bsp/\libucosii_bsp.a(alt_sys_init.o)
 .debug_str     0x000014e7       0x42 ../SynthesizerUnitTestV3_bsp/\libucosii_bsp.a(altera_avalon_fifo_util.o)
 .debug_str     0x00001529       0x12 ../SynthesizerUnitTestV3_bsp/\libucosii_bsp.a(altera_avalon_jtag_uart_fd.o)
 .debug_str     0x0000153b       0x1a ../SynthesizerUnitTestV3_bsp/\libucosii_bsp.a(altera_avalon_jtag_uart_init.o)
 .debug_str     0x00001555       0x12 ../SynthesizerUnitTestV3_bsp/\libucosii_bsp.a(altera_avalon_jtag_uart_ioctl.o)
 .debug_str     0x00001567       0x22 ../SynthesizerUnitTestV3_bsp/\libucosii_bsp.a(altera_avalon_jtag_uart_read.o)
 .debug_str     0x00001589       0x22 ../SynthesizerUnitTestV3_bsp/\libucosii_bsp.a(altera_avalon_jtag_uart_write.o)
 .debug_str     0x000015ab       0x12 ../SynthesizerUnitTestV3_bsp/\libucosii_bsp.a(altera_avalon_timer_sc.o)
 .debug_str     0x000015bd       0x4f ../SynthesizerUnitTestV3_bsp/\libucosii_bsp.a(altera_up_avalon_audio.o)
 .debug_str     0x0000160c       0x46 ../SynthesizerUnitTestV3_bsp/\libucosii_bsp.a(altera_up_avalon_audio_and_video_config.o)
 .debug_str     0x00001652       0x55 ../SynthesizerUnitTestV3_bsp/\libucosii_bsp.a(altera_up_avalon_character_lcd.o)
 .debug_str     0x000016a7       0x23 ../SynthesizerUnitTestV3_bsp/\libucosii_bsp.a(alt_alarm_start.o)
 .debug_str     0x000016ca       0x12 ../SynthesizerUnitTestV3_bsp/\libucosii_bsp.a(alt_dcache_flush_all.o)
 .debug_str     0x000016dc       0x12 ../SynthesizerUnitTestV3_bsp/\libucosii_bsp.a(alt_dev_llist_insert.o)
 .debug_str     0x000016ee       0x12 ../SynthesizerUnitTestV3_bsp/\libucosii_bsp.a(alt_find_dev.o)
 .debug_str     0x00001700       0x12 ../SynthesizerUnitTestV3_bsp/\libucosii_bsp.a(alt_icache_flush_all.o)
 .debug_str     0x00001712       0x12 ../SynthesizerUnitTestV3_bsp/\libucosii_bsp.a(alt_io_redirect.o)
 .debug_str     0x00001724       0x21 ../SynthesizerUnitTestV3_bsp/\libucosii_bsp.a(alt_irq_register.o)
 .debug_str     0x00001745       0x12 ../SynthesizerUnitTestV3_bsp/\libucosii_bsp.a(alt_open.o)
 .debug_str     0x00001757       0x1a ../SynthesizerUnitTestV3_bsp/\libucosii_bsp.a(alt_tick.o)
 .debug_str     0x00001771       0x12 ../SynthesizerUnitTestV3_bsp/\libucosii_bsp.a(altera_nios2_qsys_irq.o)
 .debug_str     0x00001783       0x20 ../SynthesizerUnitTestV3_bsp/\libucosii_bsp.a(os_cpu_c.o)
 .debug_str     0x000017a3       0x12 ../SynthesizerUnitTestV3_bsp/\libucosii_bsp.a(alt_find_file.o)
 .debug_str     0x000017b5       0x12 ../SynthesizerUnitTestV3_bsp/\libucosii_bsp.a(alt_get_fd.o)
 .debug_str     0x000017c7       0x12 ../SynthesizerUnitTestV3_bsp/\libucosii_bsp.a(alt_icache_flush.o)
 .debug_str     0x000017d9       0x12 ../SynthesizerUnitTestV3_bsp/\libucosii_bsp.a(alt_irq_handler.o)
 .debug_str     0x000017eb       0x3b c:/altera/12.1sp1/nios2eds/bin/gnu/h-i686-mingw32/bin/../lib/gcc/nios2-elf/4.1.2/../../../../nios2-elf/lib\libc.a(lib_a-atexit.o)
                                0x1bf (size before relaxing)
 .debug_str     0x00001826       0x3e c:/altera/12.1sp1/nios2eds/bin/gnu/h-i686-mingw32/bin/../lib/gcc/nios2-elf/4.1.2/../../../../nios2-elf/lib\libc.a(lib_a-exit.o)
                                0x50c (size before relaxing)
 .debug_str     0x00001864       0x42 c:/altera/12.1sp1/nios2eds/bin/gnu/h-i686-mingw32/bin/../lib/gcc/nios2-elf/4.1.2/../../../../nios2-elf/lib\libc.a(lib_a-memcmp.o)
                                0x16a (size before relaxing)
 .debug_str     0x000018a6       0x51 c:/altera/12.1sp1/nios2eds/bin/gnu/h-i686-mingw32/bin/../lib/gcc/nios2-elf/4.1.2/../../../../nios2-elf/lib\libc.a(lib_a-__atexit.o)
                                0x524 (size before relaxing)
 .debug_str     0x000018f7       0x7b c:/altera/12.1sp1/nios2eds/bin/gnu/h-i686-mingw32/bin/../lib/gcc/nios2-elf/4.1.2/../../../../nios2-elf/lib\libc.a(lib_a-__call_atexit.o)
                                0x54e (size before relaxing)
 .debug_str     0x00001972      0x10b c:/altera/12.1sp1/nios2eds/bin/gnu/h-i686-mingw32/bin/../lib/gcc/nios2-elf/4.1.2\libgcc.a(lib2-divmod.o)
                                0x1b4 (size before relaxing)
 .debug_str     0x00001a7d       0x1c ../SynthesizerUnitTestV3_bsp/\libucosii_bsp.a(alt_exit.o)

.debug_loc      0x00000000     0x5bf5
 *(.debug_loc)
 .debug_loc     0x00000000       0x82 obj/default/hello_ucosii.o
 .debug_loc     0x00000082       0xa2 c:/altera/12.1sp1/nios2eds/bin/gnu/h-i686-mingw32/bin/../lib/gcc/nios2-elf/4.1.2/../../../../nios2-elf/lib\libc.a(lib_a-puts.o)
 .debug_loc     0x00000124       0x3c c:/altera/12.1sp1/nios2eds/bin/gnu/h-i686-mingw32/bin/../lib/gcc/nios2-elf/4.1.2/../../../../nios2-elf/lib\libc.a(lib_a-strlen.o)
 .debug_loc     0x00000160      0x4e4 c:/altera/12.1sp1/nios2eds/bin/gnu/h-i686-mingw32/bin/../lib/gcc/nios2-elf/4.1.2/../../../../nios2-elf/lib\libc.a(lib_a-fvwrite.o)
 .debug_loc     0x00000644      0xaeb c:/altera/12.1sp1/nios2eds/bin/gnu/h-i686-mingw32/bin/../lib/gcc/nios2-elf/4.1.2/../../../../nios2-elf/lib\libc.a(lib_a-mallocr.o)
 .debug_loc     0x0000112f      0x106 c:/altera/12.1sp1/nios2eds/bin/gnu/h-i686-mingw32/bin/../lib/gcc/nios2-elf/4.1.2/../../../../nios2-elf/lib\libc.a(lib_a-memchr.o)
 .debug_loc     0x00001235       0xca c:/altera/12.1sp1/nios2eds/bin/gnu/h-i686-mingw32/bin/../lib/gcc/nios2-elf/4.1.2/../../../../nios2-elf/lib\libc.a(lib_a-memcpy.o)
 .debug_loc     0x000012ff      0x117 c:/altera/12.1sp1/nios2eds/bin/gnu/h-i686-mingw32/bin/../lib/gcc/nios2-elf/4.1.2/../../../../nios2-elf/lib\libc.a(lib_a-memmove.o)
 .debug_loc     0x00001416      0x8c0 c:/altera/12.1sp1/nios2eds/bin/gnu/h-i686-mingw32/bin/../lib/gcc/nios2-elf/4.1.2/../../../../nios2-elf/lib\libc.a(lib_a-reallocr.o)
 .debug_loc     0x00001cd6       0x5b c:/altera/12.1sp1/nios2eds/bin/gnu/h-i686-mingw32/bin/../lib/gcc/nios2-elf/4.1.2/../../../../nios2-elf/lib\libc.a(lib_a-sbrkr.o)
 .debug_loc     0x00001d31       0x7c c:/altera/12.1sp1/nios2eds/bin/gnu/h-i686-mingw32/bin/../lib/gcc/nios2-elf/4.1.2/../../../../nios2-elf/lib\libc.a(lib_a-wsetup.o)
 .debug_loc     0x00001dad      0x1f6 c:/altera/12.1sp1/nios2eds/bin/gnu/h-i686-mingw32/bin/../lib/gcc/nios2-elf/4.1.2/../../../../nios2-elf/lib\libc.a(lib_a-fflush.o)
 .debug_loc     0x00001fa3      0x19f c:/altera/12.1sp1/nios2eds/bin/gnu/h-i686-mingw32/bin/../lib/gcc/nios2-elf/4.1.2/../../../../nios2-elf/lib\libc.a(lib_a-findfp.o)
 .debug_loc     0x00002142      0x4a7 c:/altera/12.1sp1/nios2eds/bin/gnu/h-i686-mingw32/bin/../lib/gcc/nios2-elf/4.1.2/../../../../nios2-elf/lib\libc.a(lib_a-freer.o)
 .debug_loc     0x000025e9      0x1d2 c:/altera/12.1sp1/nios2eds/bin/gnu/h-i686-mingw32/bin/../lib/gcc/nios2-elf/4.1.2/../../../../nios2-elf/lib\libc.a(lib_a-fwalk.o)
 .debug_loc     0x000027bb      0x11c c:/altera/12.1sp1/nios2eds/bin/gnu/h-i686-mingw32/bin/../lib/gcc/nios2-elf/4.1.2/../../../../nios2-elf/lib\libc.a(lib_a-makebuf.o)
 .debug_loc     0x000028d7       0xa1 c:/altera/12.1sp1/nios2eds/bin/gnu/h-i686-mingw32/bin/../lib/gcc/nios2-elf/4.1.2/../../../../nios2-elf/lib\libc.a(lib_a-memset.o)
 .debug_loc     0x00002978      0x21f c:/altera/12.1sp1/nios2eds/bin/gnu/h-i686-mingw32/bin/../lib/gcc/nios2-elf/4.1.2/../../../../nios2-elf/lib\libc.a(lib_a-stdio.o)
 .debug_loc     0x00002b97       0x97 c:/altera/12.1sp1/nios2eds/bin/gnu/h-i686-mingw32/bin/../lib/gcc/nios2-elf/4.1.2/../../../../nios2-elf/lib\libc.a(lib_a-writer.o)
 .debug_loc     0x00002c2e       0x5b c:/altera/12.1sp1/nios2eds/bin/gnu/h-i686-mingw32/bin/../lib/gcc/nios2-elf/4.1.2/../../../../nios2-elf/lib\libc.a(lib_a-closer.o)
 .debug_loc     0x00002c89       0xe4 c:/altera/12.1sp1/nios2eds/bin/gnu/h-i686-mingw32/bin/../lib/gcc/nios2-elf/4.1.2/../../../../nios2-elf/lib\libc.a(lib_a-fclose.o)
 .debug_loc     0x00002d6d       0x79 c:/altera/12.1sp1/nios2eds/bin/gnu/h-i686-mingw32/bin/../lib/gcc/nios2-elf/4.1.2/../../../../nios2-elf/lib\libc.a(lib_a-fstatr.o)
 .debug_loc     0x00002de6       0x5b c:/altera/12.1sp1/nios2eds/bin/gnu/h-i686-mingw32/bin/../lib/gcc/nios2-elf/4.1.2/../../../../nios2-elf/lib\libc.a(lib_a-isattyr.o)
 .debug_loc     0x00002e41       0x97 c:/altera/12.1sp1/nios2eds/bin/gnu/h-i686-mingw32/bin/../lib/gcc/nios2-elf/4.1.2/../../../../nios2-elf/lib\libc.a(lib_a-lseekr.o)
 .debug_loc     0x00002ed8       0x97 c:/altera/12.1sp1/nios2eds/bin/gnu/h-i686-mingw32/bin/../lib/gcc/nios2-elf/4.1.2/../../../../nios2-elf/lib\libc.a(lib_a-readr.o)
 .debug_loc     0x00002f6f       0x56 ../SynthesizerUnitTestV3_bsp/\libucosii_bsp.a(alt_close.o)
 .debug_loc     0x00002fc5       0x2b ../SynthesizerUnitTestV3_bsp/\libucosii_bsp.a(alt_dev.o)
 .debug_loc     0x00002ff0       0x56 ../SynthesizerUnitTestV3_bsp/\libucosii_bsp.a(alt_fstat.o)
 .debug_loc     0x00003046       0x57 ../SynthesizerUnitTestV3_bsp/\libucosii_bsp.a(alt_isatty.o)
 .debug_loc     0x0000309d       0x56 ../SynthesizerUnitTestV3_bsp/\libucosii_bsp.a(alt_load.o)
 .debug_loc     0x000030f3       0x56 ../SynthesizerUnitTestV3_bsp/\libucosii_bsp.a(alt_lseek.o)
 .debug_loc     0x00003149       0x2b ../SynthesizerUnitTestV3_bsp/\libucosii_bsp.a(alt_main.o)
 .debug_loc     0x00003174       0x56 ../SynthesizerUnitTestV3_bsp/\libucosii_bsp.a(alt_read.o)
 .debug_loc     0x000031ca       0x2b ../SynthesizerUnitTestV3_bsp/\libucosii_bsp.a(alt_release_fd.o)
 .debug_loc     0x000031f5       0x2b ../SynthesizerUnitTestV3_bsp/\libucosii_bsp.a(alt_sbrk.o)
 .debug_loc     0x00003220       0x56 ../SynthesizerUnitTestV3_bsp/\libucosii_bsp.a(alt_write.o)
 .debug_loc     0x00003276       0x57 ../SynthesizerUnitTestV3_bsp/\libucosii_bsp.a(alt_env_lock.o)
 .debug_loc     0x000032cd       0x57 ../SynthesizerUnitTestV3_bsp/\libucosii_bsp.a(alt_malloc_lock.o)
 .debug_loc     0x00003324      0x5e2 ../SynthesizerUnitTestV3_bsp/\libucosii_bsp.a(os_core.o)
 .debug_loc     0x00003906       0x2b ../SynthesizerUnitTestV3_bsp/\libucosii_bsp.a(os_dbg.o)
 .debug_loc     0x00003931      0x232 ../SynthesizerUnitTestV3_bsp/\libucosii_bsp.a(os_flag.o)
 .debug_loc     0x00003b63      0x12d ../SynthesizerUnitTestV3_bsp/\libucosii_bsp.a(os_mem.o)
 .debug_loc     0x00003c90      0x1da ../SynthesizerUnitTestV3_bsp/\libucosii_bsp.a(os_q.o)
 .debug_loc     0x00003e6a      0x158 ../SynthesizerUnitTestV3_bsp/\libucosii_bsp.a(os_sem.o)
 .debug_loc     0x00003fc2      0x207 ../SynthesizerUnitTestV3_bsp/\libucosii_bsp.a(os_task.o)
 .debug_loc     0x000041c9       0xd7 ../SynthesizerUnitTestV3_bsp/\libucosii_bsp.a(os_time.o)
 .debug_loc     0x000042a0       0x81 ../SynthesizerUnitTestV3_bsp/\libucosii_bsp.a(alt_sys_init.o)
 .debug_loc     0x00004321      0x2db ../SynthesizerUnitTestV3_bsp/\libucosii_bsp.a(altera_avalon_fifo_util.o)
 .debug_loc     0x000045fc       0xac ../SynthesizerUnitTestV3_bsp/\libucosii_bsp.a(altera_avalon_jtag_uart_fd.o)
 .debug_loc     0x000046a8       0xac ../SynthesizerUnitTestV3_bsp/\libucosii_bsp.a(altera_avalon_jtag_uart_init.o)
 .debug_loc     0x00004754       0x2b ../SynthesizerUnitTestV3_bsp/\libucosii_bsp.a(altera_avalon_jtag_uart_ioctl.o)
 .debug_loc     0x0000477f       0x2c ../SynthesizerUnitTestV3_bsp/\libucosii_bsp.a(altera_avalon_jtag_uart_read.o)
 .debug_loc     0x000047ab       0x2c ../SynthesizerUnitTestV3_bsp/\libucosii_bsp.a(altera_avalon_jtag_uart_write.o)
 .debug_loc     0x000047d7       0x56 ../SynthesizerUnitTestV3_bsp/\libucosii_bsp.a(altera_avalon_timer_sc.o)
 .debug_loc     0x0000482d      0x306 ../SynthesizerUnitTestV3_bsp/\libucosii_bsp.a(altera_up_avalon_audio.o)
 .debug_loc     0x00004b33      0x2db ../SynthesizerUnitTestV3_bsp/\libucosii_bsp.a(altera_up_avalon_audio_and_video_config.o)
 .debug_loc     0x00004e0e      0x22f ../SynthesizerUnitTestV3_bsp/\libucosii_bsp.a(altera_up_avalon_character_lcd.o)
 .debug_loc     0x0000503d       0x2b ../SynthesizerUnitTestV3_bsp/\libucosii_bsp.a(alt_alarm_start.o)
 .debug_loc     0x00005068       0x2b ../SynthesizerUnitTestV3_bsp/\libucosii_bsp.a(alt_dcache_flush_all.o)
 .debug_loc     0x00005093       0x56 ../SynthesizerUnitTestV3_bsp/\libucosii_bsp.a(alt_dev_llist_insert.o)
 .debug_loc     0x000050e9       0x2b ../SynthesizerUnitTestV3_bsp/\libucosii_bsp.a(alt_do_ctors.o)
 .debug_loc     0x00005114       0x2b ../SynthesizerUnitTestV3_bsp/\libucosii_bsp.a(alt_do_dtors.o)
 .debug_loc     0x0000513f       0x2b ../SynthesizerUnitTestV3_bsp/\libucosii_bsp.a(alt_find_dev.o)
 .debug_loc     0x0000516a       0x2b ../SynthesizerUnitTestV3_bsp/\libucosii_bsp.a(alt_icache_flush_all.o)
 .debug_loc     0x00005195       0x56 ../SynthesizerUnitTestV3_bsp/\libucosii_bsp.a(alt_io_redirect.o)
 .debug_loc     0x000051eb       0x2c ../SynthesizerUnitTestV3_bsp/\libucosii_bsp.a(alt_irq_register.o)
 .debug_loc     0x00005217       0x81 ../SynthesizerUnitTestV3_bsp/\libucosii_bsp.a(alt_open.o)
 .debug_loc     0x00005298       0x56 ../SynthesizerUnitTestV3_bsp/\libucosii_bsp.a(alt_tick.o)
 .debug_loc     0x000052ee       0x2b ../SynthesizerUnitTestV3_bsp/\libucosii_bsp.a(altera_nios2_qsys_irq.o)
 .debug_loc     0x00005319      0x1ae ../SynthesizerUnitTestV3_bsp/\libucosii_bsp.a(os_cpu_c.o)
 .debug_loc     0x000054c7       0x2b ../SynthesizerUnitTestV3_bsp/\libucosii_bsp.a(alt_find_file.o)
 .debug_loc     0x000054f2       0x2b ../SynthesizerUnitTestV3_bsp/\libucosii_bsp.a(alt_get_fd.o)
 .debug_loc     0x0000551d       0x2b ../SynthesizerUnitTestV3_bsp/\libucosii_bsp.a(alt_icache_flush.o)
 .debug_loc     0x00005548       0x2b ../SynthesizerUnitTestV3_bsp/\libucosii_bsp.a(alt_irq_handler.o)
 .debug_loc     0x00005573       0x1e c:/altera/12.1sp1/nios2eds/bin/gnu/h-i686-mingw32/bin/../lib/gcc/nios2-elf/4.1.2/../../../../nios2-elf/lib\libc.a(lib_a-atexit.o)
 .debug_loc     0x00005591       0x3d c:/altera/12.1sp1/nios2eds/bin/gnu/h-i686-mingw32/bin/../lib/gcc/nios2-elf/4.1.2/../../../../nios2-elf/lib\libc.a(lib_a-exit.o)
 .debug_loc     0x000055ce      0x114 c:/altera/12.1sp1/nios2eds/bin/gnu/h-i686-mingw32/bin/../lib/gcc/nios2-elf/4.1.2/../../../../nios2-elf/lib\libc.a(lib_a-memcmp.o)
 .debug_loc     0x000056e2      0x120 c:/altera/12.1sp1/nios2eds/bin/gnu/h-i686-mingw32/bin/../lib/gcc/nios2-elf/4.1.2/../../../../nios2-elf/lib\libc.a(lib_a-__atexit.o)
 .debug_loc     0x00005802      0x1cb c:/altera/12.1sp1/nios2eds/bin/gnu/h-i686-mingw32/bin/../lib/gcc/nios2-elf/4.1.2/../../../../nios2-elf/lib\libc.a(lib_a-__call_atexit.o)
 .debug_loc     0x000059cd      0x1d2 c:/altera/12.1sp1/nios2eds/bin/gnu/h-i686-mingw32/bin/../lib/gcc/nios2-elf/4.1.2\libgcc.a(lib2-divmod.o)
 .debug_loc     0x00005b9f       0x56 ../SynthesizerUnitTestV3_bsp/\libucosii_bsp.a(alt_exit.o)

.debug_macinfo
 *(.debug_macinfo)

.debug_weaknames
 *(.debug_weaknames)

.debug_funcnames
 *(.debug_funcnames)

.debug_typenames
 *(.debug_typenames)

.debug_varnames
 *(.debug_varnames)

.debug_alt_sim_info
                0x00000000       0x30
 *(.debug_alt_sim_info)
 .debug_alt_sim_info
                0x00000000       0x30 ../SynthesizerUnitTestV3_bsp//obj/HAL/src/crt0.o
                0x01000000                __alt_data_end = 0x1000000
                0x01000000                PROVIDE (__alt_stack_pointer, __alt_data_end)
                0x0081af48                PROVIDE (__alt_stack_limit, __alt_stack_base)
                0x0081af48                PROVIDE (__alt_heap_start, end)
                0x01000000                PROVIDE (__alt_heap_limit, 0x1000000)
OUTPUT(SynthesizerUnitTestV3.elf elf32-littlenios2)

.debug_ranges   0x00000000      0x310
 .debug_ranges  0x00000000       0x20 ../SynthesizerUnitTestV3_bsp//obj/HAL/src/crt0.o
 .debug_ranges  0x00000020       0x28 c:/altera/12.1sp1/nios2eds/bin/gnu/h-i686-mingw32/bin/../lib/gcc/nios2-elf/4.1.2/../../../../nios2-elf/lib\libc.a(lib_a-fvwrite.o)
 .debug_ranges  0x00000048       0x70 c:/altera/12.1sp1/nios2eds/bin/gnu/h-i686-mingw32/bin/../lib/gcc/nios2-elf/4.1.2/../../../../nios2-elf/lib\libc.a(lib_a-mallocr.o)
 .debug_ranges  0x000000b8      0x110 c:/altera/12.1sp1/nios2eds/bin/gnu/h-i686-mingw32/bin/../lib/gcc/nios2-elf/4.1.2/../../../../nios2-elf/lib\libc.a(lib_a-reallocr.o)
 .debug_ranges  0x000001c8       0x20 c:/altera/12.1sp1/nios2eds/bin/gnu/h-i686-mingw32/bin/../lib/gcc/nios2-elf/4.1.2/../../../../nios2-elf/lib\libc.a(lib_a-fflush.o)
 .debug_ranges  0x000001e8       0xa0 c:/altera/12.1sp1/nios2eds/bin/gnu/h-i686-mingw32/bin/../lib/gcc/nios2-elf/4.1.2/../../../../nios2-elf/lib\libc.a(lib_a-fwalk.o)
 .debug_ranges  0x00000288       0x18 ../SynthesizerUnitTestV3_bsp/\libucosii_bsp.a(altera_avalon_jtag_uart_init.o)
 .debug_ranges  0x000002a0       0x28 ../SynthesizerUnitTestV3_bsp/\libucosii_bsp.a(alt_irq_entry.o)
 .debug_ranges  0x000002c8       0x30 ../SynthesizerUnitTestV3_bsp/\libucosii_bsp.a(alt_exception_entry.o)
 .debug_ranges  0x000002f8       0x18 c:/altera/12.1sp1/nios2eds/bin/gnu/h-i686-mingw32/bin/../lib/gcc/nios2-elf/4.1.2/../../../../nios2-elf/lib\libc.a(lib_a-__call_atexit.o)
